(lp0
F43.474999999999994
aI1
a(lp1
(lp2
I0
aI0
aI0
aa(lp3
I0
aI0
aI0
aa(lp4
I0
aI0
aI0
aa(lp5
I0
aI0
aI0
aa(lp6
I0
aI0
aI0
aa(lp7
I0
aI0
aI0
aa(lp8
I0
aI0
aI0
aa(lp9
I0
aI0
aI0
aa(lp10
I0
aI0
aI0
aa(lp11
I0
aI0
aI0
aa(lp12
I0
aI0
aI0
aa(lp13
I0
aI0
aI0
aa(lp14
I0
aI0
aI0
aa(lp15
I0
aI0
aI0
aa(lp16
I0
aI0
aI0
aa(lp17
I0
aI0
aI0
aa(lp18
I0
aI0
aI0
aa(lp19
I0
aI0
aI0
aa(lp20
I0
aI0
aI0
aa(lp21
I0
aI0
aI0
aa(lp22
I0
aI0
aI0
aa(lp23
I0
aI0
aI0
aa(lp24
I0
aI0
aI0
aa(lp25
I0
aI0
aI0
aa(lp26
I0
aI0
aI0
aa(lp27
I0
aI0
aI0
aa(lp28
I0
aI0
aI0
aa(lp29
I0
aI0
aI0
aa(lp30
I0
aI0
aI0
aa(lp31
I0
aI0
aI0
aa(lp32
I0
aI0
aI0
aa(lp33
I0
aI0
aI0
aa(lp34
I0
aI0
aI0
aa(lp35
I0
aI0
aI0
aa(lp36
I0
aI0
aI0
aa(lp37
I0
aI0
aI0
aa(lp38
I0
aI0
aI0
aa(lp39
I0
aI0
aI0
aa(lp40
I0
aI0
aI0
aa(lp41
I0
aI0
aI0
aa(lp42
I0
aI0
aI0
aa(lp43
I0
aI0
aI0
aa(lp44
I0
aI0
aI0
aa(lp45
I0
aI0
aI0
aa(lp46
I0
aI0
aI0
aa(lp47
I0
aI0
aI0
aa(lp48
I0
aI0
aI0
aa(lp49
I0
aI0
aI0
aa(lp50
I0
aI0
aI0
aa(lp51
I0
aI0
aI0
aa(lp52
I0
aI0
aI0
aa(lp53
I0
aI0
aI0
aa(lp54
I0
aI0
aI0
aa(lp55
I0
aI0
aI0
aa(lp56
I0
aI0
aI0
aa(lp57
I0
aI0
aI0
aa(lp58
I0
aI0
aI0
aa(lp59
I0
aI0
aI0
aa(lp60
I0
aI0
aI0
aa(lp61
I0
aI0
aI0
aa(lp62
I0
aI0
aI0
aa(lp63
I0
aI0
aI0
aa(lp64
I0
aI0
aI0
aa(lp65
I0
aI0
aI0
aa(lp66
I0
aI0
aI0
aa(lp67
I0
aI0
aI0
aa(lp68
I0
aI0
aI0
aa(lp69
I0
aI0
aI0
aa(lp70
I0
aI0
aI0
aa(lp71
I0
aI0
aI0
aa(lp72
I0
aI0
aI0
aa(lp73
I0
aI0
aI0
aa(lp74
I0
aI0
aI0
aa(lp75
I0
aI0
aI0
aa(lp76
I0
aI0
aI0
aa(lp77
I0
aI0
aI0
aa(lp78
I0
aI0
aI0
aa(lp79
I0
aI0
aI0
aa(lp80
I0
aI0
aI0
aa(lp81
I0
aI0
aI0
aa(lp82
I0
aI0
aI0
aa(lp83
I0
aI0
aI0
aa(lp84
I0
aI0
aI0
aa(lp85
I0
aI0
aI0
aa(lp86
I0
aI0
aI0
aa(lp87
I0
aI0
aI0
aa(lp88
I0
aI0
aI0
aa(lp89
I0
aI0
aI0
aa(lp90
I0
aI0
aI0
aa(lp91
I0
aI0
aI0
aa(lp92
I0
aI0
aI0
aa(lp93
I0
aI0
aI0
aa(lp94
I0
aI0
aI0
aa(lp95
I0
aI0
aI0
aa(lp96
I0
aI0
aI0
aa(lp97
I0
aI0
aI0
aa(lp98
I0
aI0
aI0
aa(lp99
I0
aI0
aI0
aa(lp100
I0
aI0
aI0
aa(lp101
I0
aI0
aI0
aa(lp102
I0
aI0
aI0
aa(lp103
I0
aI0
aI0
aa(lp104
I0
aI0
aI0
aa(lp105
I0
aI0
aI0
aa(lp106
I0
aI0
aI0
aa(lp107
I0
aI0
aI0
aa(lp108
I0
aI0
aI0
aa(lp109
I168
aI0
aI168
aa(lp110
I168
aI0
aI168
aa(lp111
I168
aI0
aI168
aa(lp112
I168
aI168
aI168
aa(lp113
I172
aI172
aI172
aa(lp114
I172
aI172
aI172
aa(lp115
I172
aI172
aI172
aa(lp116
I0
aI172
aI172
aa(lp117
I0
aI0
aI0
aa(lp118
I0
aI0
aI0
aa(lp119
I0
aI0
aI0
aa(lp120
I0
aI0
aI0
aa(lp121
I0
aI0
aI0
aa(lp122
I0
aI0
aI0
aa(lp123
I0
aI0
aI0
aa(lp124
I0
aI0
aI0
aa(lp125
I0
aI0
aI0
aa(lp126
I0
aI0
aI0
aa(lp127
I0
aI0
aI0
aa(lp128
I0
aI0
aI0
aa(lp129
I0
aI0
aI0
aa(lp130
I0
aI0
aI0
aa(lp131
I0
aI0
aI0
aa(lp132
I0
aI0
aI0
aa(lp133
I0
aI0
aI0
aa(lp134
I0
aI0
aI0
aa(lp135
I0
aI0
aI0
aa(lp136
I0
aI0
aI0
aa(lp137
I0
aI0
aI0
aa(lp138
I0
aI0
aI0
aa(lp139
I168
aI0
aI168
aa(lp140
I168
aI168
aI168
aa(lp141
I0
aI168
aI0
aa(lp142
I168
aI168
aI168
aa(lp143
I172
aI172
aI172
aa(lp144
I172
aI172
aI172
aa(lp145
I172
aI172
aI172
aa(lp146
I172
aI172
aI172
aa(lp147
I0
aI0
aI0
aa(lp148
I0
aI0
aI0
aa(lp149
I0
aI0
aI0
aa(lp150
I0
aI0
aI0
aa(lp151
I0
aI0
aI0
aa(lp152
I0
aI0
aI0
aa(lp153
I0
aI0
aI0
aa(lp154
I0
aI0
aI0
aa(lp155
I0
aI0
aI0
aa(lp156
I0
aI0
aI0
aa(lp157
I216
aI216
aI216
aa(lp158
I0
aI0
aI0
aa(lp159
I0
aI0
aI0
aa(lp160
I0
aI0
aI0
aa(lp161
I0
aI0
aI0
aa(lp162
I0
aI0
aI0
aa(lp163
I0
aI0
aI0
aa(lp164
I0
aI0
aI0
aa(lp165
I0
aI0
aI0
aa(lp166
I0
aI0
aI0
aa(lp167
I0
aI0
aI0
aa(lp168
I228
aI228
aI228
aa(lp169
I228
aI228
aI228
aa(lp170
I228
aI228
aI228
aa(lp171
I228
aI228
aI228
aa(lp172
I228
aI228
aI228
aa(lp173
I0
aI229
aI0
aa(lp174
I0
aI0
aI0
aa(lp175
I172
aI172
aI172
aa(lp176
I172
aI172
aI172
aa(lp177
I0
aI0
aI0
aa(lp178
I0
aI0
aI0
aa(lp179
I0
aI0
aI0
aa(lp180
I0
aI0
aI0
aa(lp181
I0
aI0
aI0
aa(lp182
I0
aI0
aI0
aa(lp183
I0
aI0
aI0
aa(lp184
I0
aI0
aI0
aa(lp185
I0
aI0
aI0
aa(lp186
I216
aI216
aI216
aa(lp187
I216
aI216
aI216
aa(lp188
I0
aI0
aI0
aa(lp189
I216
aI216
aI216
aa(lp190
I0
aI0
aI0
aa(lp191
I0
aI0
aI0
aa(lp192
I0
aI0
aI0
aa(lp193
I0
aI0
aI0
aa(lp194
I0
aI0
aI0
aa(lp195
I0
aI0
aI0
aa(lp196
I0
aI0
aI0
aa(lp197
I0
aI0
aI0
aa(lp198
I228
aI228
aI228
aa(lp199
I228
aI228
aI228
aa(lp200
I228
aI228
aI228
aa(lp201
I228
aI228
aI228
aa(lp202
I228
aI228
aI228
aa(lp203
I259
aI259
aI259
aa(lp204
I172
aI172
aI172
aa(lp205
I233
aI233
aI233
aa(lp206
I0
aI0
aI0
aa(lp207
I0
aI0
aI0
aa(lp208
I0
aI0
aI0
aa(lp209
I0
aI0
aI0
aa(lp210
I0
aI0
aI0
aa(lp211
I0
aI0
aI0
aa(lp212
I0
aI0
aI0
aa(lp213
I0
aI0
aI0
aa(lp214
I0
aI0
aI0
aa(lp215
I0
aI0
aI0
aa(lp216
I216
aI216
aI216
aa(lp217
I216
aI216
aI216
aa(lp218
I0
aI0
aI0
aa(lp219
I0
aI0
aI0
aa(lp220
I216
aI216
aI216
aa(lp221
I0
aI0
aI0
aa(lp222
I0
aI0
aI0
aa(lp223
I0
aI0
aI0
aa(lp224
I0
aI0
aI0
aa(lp225
I0
aI0
aI0
aa(lp226
I0
aI0
aI0
aa(lp227
I0
aI0
aI0
aa(lp228
I228
aI228
aI228
aa(lp229
I228
aI228
aI228
aa(lp230
I228
aI228
aI228
aa(lp231
I228
aI228
aI228
aa(lp232
I228
aI228
aI228
aa(lp233
I259
aI259
aI259
aa(lp234
I0
aI0
aI0
aa(lp235
I0
aI0
aI0
aa(lp236
I0
aI0
aI0
aa(lp237
I0
aI0
aI0
aa(lp238
I0
aI0
aI0
aa(lp239
I0
aI0
aI0
aa(lp240
I0
aI0
aI0
aa(lp241
I0
aI0
aI0
aa(lp242
I0
aI0
aI0
aa(lp243
I0
aI0
aI0
aa(lp244
I0
aI0
aI0
aa(lp245
I0
aI0
aI0
aa(lp246
I0
aI216
aI216
aa(lp247
I216
aI216
aI216
aa(lp248
I216
aI216
aI216
aa(lp249
I216
aI216
aI216
aa(lp250
I216
aI216
aI216
aa(lp251
I0
aI0
aI0
aa(lp252
I0
aI0
aI0
aa(lp253
I0
aI0
aI0
aa(lp254
I0
aI0
aI0
aa(lp255
I0
aI0
aI0
aa(lp256
I344
aI344
aI344
aa(lp257
I0
aI0
aI0
aa(lp258
I228
aI228
aI228
aa(lp259
I228
aI228
aI228
aa(lp260
I228
aI228
aI228
aa(lp261
I228
aI228
aI228
aa(lp262
I228
aI228
aI228
aa(lp263
I0
aI0
aI0
aa(lp264
I0
aI0
aI0
aa(lp265
I0
aI0
aI0
aa(lp266
I0
aI233
aI233
aa(lp267
I0
aI0
aI0
aa(lp268
I0
aI0
aI0
aa(lp269
I0
aI0
aI0
aa(lp270
I0
aI0
aI0
aa(lp271
I0
aI0
aI0
aa(lp272
I0
aI0
aI0
aa(lp273
I0
aI0
aI0
aa(lp274
I0
aI0
aI0
aa(lp275
I0
aI0
aI0
aa(lp276
I216
aI216
aI216
aa(lp277
I0
aI0
aI0
aa(lp278
I0
aI0
aI0
aa(lp279
I216
aI216
aI216
aa(lp280
I216
aI216
aI216
aa(lp281
I0
aI0
aI0
aa(lp282
I0
aI0
aI0
aa(lp283
I0
aI0
aI0
aa(lp284
I344
aI344
aI344
aa(lp285
I344
aI344
aI344
aa(lp286
I344
aI344
aI344
aa(lp287
I344
aI344
aI344
aa(lp288
I228
aI228
aI228
aa(lp289
I228
aI228
aI228
aa(lp290
I228
aI228
aI228
aa(lp291
I0
aI0
aI0
aa(lp292
I0
aI0
aI0
aa(lp293
I0
aI0
aI0
aa(lp294
I0
aI0
aI0
aa(lp295
I0
aI0
aI0
aa(lp296
I0
aI0
aI0
aa(lp297
I233
aI233
aI233
aa(lp298
I0
aI0
aI0
aa(lp299
I0
aI0
aI0
aa(lp300
I0
aI0
aI0
aa(lp301
I0
aI0
aI0
aa(lp302
I0
aI0
aI0
aa(lp303
I0
aI0
aI0
aa(lp304
I0
aI0
aI0
aa(lp305
I0
aI0
aI0
aa(lp306
I0
aI0
aI0
aa(lp307
I0
aI0
aI0
aa(lp308
I0
aI0
aI0
aa(lp309
I0
aI0
aI0
aa(lp310
I0
aI0
aI0
aa(lp311
I0
aI0
aI0
aa(lp312
I0
aI0
aI0
aa(lp313
I373
aI373
aI373
aa(lp314
I344
aI344
aI344
aa(lp315
I375
aI375
aI375
aa(lp316
I376
aI376
aI376
aa(lp317
I376
aI376
aI376
aa(lp318
I406
aI406
aI406
aa(lp319
I376
aI376
aI376
aa(lp320
I376
aI376
aI376
aa(lp321
I258
aI258
aI258
aa(lp322
I0
aI0
aI0
aa(lp323
I0
aI0
aI0
aa(lp324
I0
aI0
aI0
aa(lp325
I383
aI383
aI0
aa(lp326
I383
aI383
aI383
aa(lp327
I0
aI0
aI0
aa(lp328
I0
aI0
aI0
aa(lp329
I0
aI0
aI0
aa(lp330
I0
aI0
aI0
aa(lp331
I0
aI0
aI0
aa(lp332
I0
aI0
aI0
aa(lp333
I0
aI0
aI0
aa(lp334
I0
aI0
aI0
aa(lp335
I0
aI0
aI0
aa(lp336
I0
aI0
aI0
aa(lp337
I0
aI0
aI0
aa(lp338
I0
aI0
aI0
aa(lp339
I0
aI0
aI0
aa(lp340
I0
aI0
aI0
aa(lp341
I0
aI0
aI0
aa(lp342
I0
aI0
aI0
aa(lp343
I344
aI344
aI344
aa(lp344
I404
aI404
aI404
aa(lp345
I375
aI375
aI375
aa(lp346
I376
aI376
aI376
aa(lp347
I376
aI376
aI376
aa(lp348
I406
aI406
aI406
aa(lp349
I406
aI406
aI406
aa(lp350
I406
aI406
aI406
aa(lp351
I259
aI259
aI259
aa(lp352
I0
aI0
aI0
aa(lp353
I0
aI0
aI0
aa(lp354
I0
aI0
aI0
aa(lp355
I383
aI383
aI383
aa(lp356
I0
aI0
aI0
aa(lp357
I383
aI383
aI383
aa(lp358
I0
aI0
aI0
aa(lp359
I0
aI0
aI0
aa(lp360
I0
aI0
aI0
aa(lp361
I0
aI0
aI0
aa(lp362
I0
aI0
aI0
aa(lp363
I0
aI0
aI0
aa(lp364
I0
aI0
aI0
aa(lp365
I0
aI0
aI0
aa(lp366
I0
aI0
aI0
aa(lp367
I0
aI0
aI0
aa(lp368
I0
aI0
aI0
aa(lp369
I0
aI0
aI0
aa(lp370
I0
aI0
aI0
aa(lp371
I0
aI0
aI0
aa(lp372
I0
aI0
aI0
aa(lp373
I433
aI433
aI433
aa(lp374
I433
aI433
aI433
aa(lp375
I376
aI376
aI376
aa(lp376
I376
aI376
aI376
aa(lp377
I376
aI376
aI376
aa(lp378
I406
aI406
aI406
aa(lp379
I406
aI406
aI406
aa(lp380
I406
aI406
aI406
aa(lp381
I348
aI348
aI348
aa(lp382
I348
aI348
aI348
aa(lp383
I0
aI0
aI0
aa(lp384
I0
aI0
aI383
aa(lp385
I0
aI0
aI0
aa(lp386
I0
aI0
aI0
aa(lp387
I0
aI0
aI0
aa(lp388
I0
aI0
aI0
aa(lp389
I0
aI0
aI0
aa(lp390
I0
aI0
aI0
aa(lp391
I0
aI0
aI0
aa(lp392
I0
aI0
aI0
aa(lp393
I0
aI0
aI0
aa(lp394
I0
aI0
aI0
aa(lp395
I0
aI0
aI0
aa(lp396
I0
aI0
aI0
aa(lp397
I0
aI0
aI0
aa(lp398
I0
aI0
aI0
aa(lp399
I0
aI0
aI0
aa(lp400
I0
aI0
aI0
aa(lp401
I0
aI0
aI0
aa(lp402
I0
aI0
aI0
aa(lp403
I433
aI433
aI433
aa(lp404
I433
aI433
aI433
aa(lp405
I406
aI406
aI406
aa(lp406
I376
aI376
aI376
aa(lp407
I376
aI376
aI376
aa(lp408
I376
aI376
aI376
aa(lp409
I0
aI0
aI0
aa(lp410
I406
aI406
aI406
aa(lp411
I348
aI348
aI348
aa(lp412
I0
aI348
aI0
aa(lp413
I0
aI0
aI0
aa(lp414
I0
aI0
aI0
aa(lp415
I383
aI383
aI383
aa(lp416
I383
aI383
aI0
aa(lp417
I0
aI0
aI0
aa(lp418
I0
aI0
aI0
aa(lp419
I0
aI0
aI0
aa(lp420
I0
aI0
aI0
aa(lp421
I0
aI0
aI0
aa(lp422
I0
aI0
aI0
aa(lp423
I0
aI0
aI0
aa(lp424
I0
aI0
aI0
aa(lp425
I0
aI0
aI0
aa(lp426
I0
aI0
aI0
aa(lp427
I0
aI0
aI0
aa(lp428
I0
aI0
aI0
aa(lp429
I0
aI0
aI0
aa(lp430
I0
aI0
aI0
aa(lp431
I0
aI0
aI0
aa(lp432
I0
aI0
aI0
aa(lp433
I433
aI433
aI433
aa(lp434
I0
aI0
aI0
aa(lp435
I433
aI433
aI433
aa(lp436
I376
aI376
aI376
aa(lp437
I376
aI376
aI376
aa(lp438
I406
aI406
aI406
aa(lp439
I406
aI406
aI406
aa(lp440
I0
aI0
aI0
aa(lp441
I0
aI0
aI0
aa(lp442
I0
aI0
aI0
aa(lp443
I0
aI0
aI0
aa(lp444
I0
aI0
aI0
aa(lp445
I383
aI383
aI383
aa(lp446
I383
aI383
aI0
aa(lp447
I0
aI0
aI0
aa(lp448
I0
aI0
aI0
aa(lp449
I0
aI0
aI0
aa(lp450
I0
aI0
aI0
aa(lp451
I0
aI0
aI0
aa(lp452
I0
aI0
aI0
aa(lp453
I0
aI0
aI0
aa(lp454
I0
aI0
aI0
aa(lp455
I0
aI0
aI0
aa(lp456
I0
aI0
aI0
aa(lp457
I0
aI0
aI0
aa(lp458
I0
aI0
aI0
aa(lp459
I0
aI0
aI0
aa(lp460
I0
aI0
aI0
aa(lp461
I0
aI0
aI0
aa(lp462
I0
aI0
aI0
aa(lp463
I433
aI433
aI433
aa(lp464
I433
aI433
aI433
aa(lp465
I433
aI433
aI433
aa(lp466
I406
aI406
aI406
aa(lp467
I406
aI406
aI406
aa(lp468
I406
aI406
aI406
aa(lp469
I406
aI406
aI406
aa(lp470
I406
aI406
aI406
aa(lp471
I0
aI0
aI0
aa(lp472
I0
aI0
aI0
aa(lp473
I0
aI0
aI0
aa(lp474
I0
aI0
aI0
aa(lp475
I0
aI0
aI0
aa(lp476
I0
aI0
aI0
aa(lp477
I0
aI0
aI0
aa(lp478
I0
aI0
aI0
aa(lp479
I0
aI0
aI0
aa(lp480
I0
aI0
aI0
aa(lp481
I0
aI0
aI0
aa(lp482
I0
aI0
aI0
aa(lp483
I0
aI0
aI0
aa(lp484
I0
aI0
aI0
aa(lp485
I0
aI0
aI0
aa(lp486
I0
aI0
aI0
aa(lp487
I0
aI0
aI0
aa(lp488
I0
aI0
aI0
aa(lp489
I0
aI0
aI0
aa(lp490
I0
aI0
aI0
aa(lp491
I0
aI0
aI0
aa(lp492
I0
aI0
aI0
aa(lp493
I433
aI433
aI433
aa(lp494
I433
aI433
aI433
aa(lp495
I433
aI433
aI433
aa(lp496
I433
aI433
aI433
aa(lp497
I433
aI433
aI433
aa(lp498
I466
aI466
aI466
aa(lp499
I466
aI466
aI466
aa(lp500
I466
aI466
aI466
aa(lp501
I0
aI0
aI0
aa(lp502
I0
aI0
aI0
aa(lp503
I0
aI0
aI0
aa(lp504
I0
aI0
aI0
aa(lp505
I0
aI0
aI0
aa(lp506
I0
aI0
aI0
aa(lp507
I0
aI0
aI0
aa(lp508
I0
aI0
aI0
aa(lp509
I0
aI0
aI0
aa(lp510
I0
aI0
aI0
aa(lp511
I0
aI0
aI0
aa(lp512
I0
aI0
aI0
aa(lp513
I0
aI0
aI0
aa(lp514
I0
aI0
aI0
aa(lp515
I0
aI0
aI0
aa(lp516
I0
aI0
aI0
aa(lp517
I0
aI0
aI0
aa(lp518
I0
aI0
aI0
aa(lp519
I0
aI0
aI0
aa(lp520
I0
aI0
aI0
aa(lp521
I0
aI0
aI0
aa(lp522
I0
aI0
aI0
aa(lp523
I463
aI463
aI463
aa(lp524
I463
aI0
aI463
aa(lp525
I0
aI463
aI495
aa(lp526
I466
aI466
aI466
aa(lp527
I466
aI466
aI466
aa(lp528
I466
aI466
aI466
aa(lp529
I466
aI466
aI466
aa(lp530
I466
aI466
aI466
aa(lp531
I588
aI588
aI588
aa(lp532
I588
aI588
aI588
aa(lp533
I0
aI0
aI0
aa(lp534
I0
aI0
aI0
aa(lp535
I0
aI0
aI0
aa(lp536
I0
aI0
aI0
aa(lp537
I0
aI0
aI0
aa(lp538
I0
aI0
aI0
aa(lp539
I0
aI0
aI0
aa(lp540
I0
aI0
aI0
aa(lp541
I0
aI0
aI0
aa(lp542
I0
aI0
aI0
aa(lp543
I0
aI0
aI0
aa(lp544
I0
aI0
aI0
aa(lp545
I0
aI0
aI0
aa(lp546
I0
aI0
aI0
aa(lp547
I0
aI0
aI0
aa(lp548
I0
aI0
aI0
aa(lp549
I0
aI0
aI0
aa(lp550
I0
aI0
aI0
aa(lp551
I0
aI0
aI0
aa(lp552
I0
aI0
aI0
aa(lp553
I0
aI0
aI0
aa(lp554
I0
aI0
aI0
aa(lp555
I495
aI0
aI463
aa(lp556
I0
aI0
aI0
aa(lp557
I0
aI495
aI0
aa(lp558
I466
aI466
aI466
aa(lp559
I588
aI588
aI588
aa(lp560
I588
aI588
aI588
aa(lp561
I588
aI588
aI588
aa(lp562
I588
aI588
aI588
aa(lp563
I619
aI620
aI620
aa(lp564
I620
aI620
aI620
aa(lp565
I0
aI0
aI0
aa(lp566
I0
aI0
aI0
aa(lp567
I0
aI0
aI0
aa(lp568
I0
aI0
aI0
aa(lp569
I0
aI0
aI0
aa(lp570
I0
aI0
aI0
aa(lp571
I0
aI0
aI0
aa(lp572
I0
aI0
aI0
aa(lp573
I0
aI0
aI0
aa(lp574
I0
aI0
aI0
aa(lp575
I0
aI0
aI0
aa(lp576
I0
aI0
aI0
aa(lp577
I0
aI0
aI0
aa(lp578
I0
aI0
aI0
aa(lp579
I0
aI0
aI0
aa(lp580
I0
aI0
aI0
aa(lp581
I0
aI0
aI0
aa(lp582
I0
aI0
aI0
aa(lp583
I0
aI0
aI0
aa(lp584
I0
aI0
aI0
aa(lp585
I0
aI0
aI0
aa(lp586
I0
aI0
aI0
aa(lp587
I0
aI0
aI0
aa(lp588
I588
aI588
aI588
aa(lp589
I588
aI588
aI588
aa(lp590
I588
aI588
aI588
aa(lp591
I588
aI588
aI588
aa(lp592
I588
aI588
aI588
aa(lp593
I0
aI0
aI0
aa(lp594
I0
aI0
aI0
aa(lp595
I0
aI0
aI0
aa(lp596
I0
aI0
aI0
aa(lp597
I0
aI0
aI0
aa(lp598
I0
aI0
aI0
aa(lp599
I0
aI0
aI0
aa(lp600
I0
aI0
aI0
aa(lp601
I0
aI0
aI0
aa(lp602
I0
aI0
aI0
aa(lp603
I0
aI0
aI0
aa(lp604
I0
aI0
aI0
aa(lp605
I0
aI0
aI0
aa(lp606
I0
aI0
aI0
aa(lp607
I0
aI0
aI0
aa(lp608
I0
aI0
aI0
aa(lp609
I0
aI0
aI0
aa(lp610
I0
aI0
aI0
aa(lp611
I0
aI0
aI0
aa(lp612
I0
aI0
aI0
aa(lp613
I0
aI0
aI0
aa(lp614
I0
aI0
aI0
aa(lp615
I0
aI0
aI0
aa(lp616
I0
aI0
aI0
aa(lp617
I0
aI0
aI0
aa(lp618
I588
aI588
aI588
aa(lp619
I588
aI588
aI588
aa(lp620
I588
aI588
aI588
aa(lp621
I588
aI588
aI588
aa(lp622
I588
aI588
aI588
aa(lp623
I620
aI620
aI620
aa(lp624
I0
aI0
aI0
aa(lp625
I0
aI0
aI0
aa(lp626
I0
aI0
aI0
aa(lp627
I0
aI0
aI0
aa(lp628
I0
aI0
aI0
aa(lp629
I0
aI0
aI0
aa(lp630
I0
aI0
aI0
aa(lp631
I0
aI0
aI0
aa(lp632
I0
aI0
aI0
aa(lp633
I0
aI0
aI0
aa(lp634
I0
aI0
aI0
aa(lp635
I0
aI0
aI0
aa(lp636
I0
aI0
aI0
aa(lp637
I0
aI0
aI0
aa(lp638
I0
aI0
aI0
aa(lp639
I0
aI0
aI0
aa(lp640
I0
aI0
aI0
aa(lp641
I0
aI0
aI0
aa(lp642
I0
aI0
aI0
aa(lp643
I0
aI0
aI0
aa(lp644
I0
aI0
aI0
aa(lp645
I0
aI0
aI0
aa(lp646
I0
aI0
aI0
aa(lp647
I0
aI0
aI0
aa(lp648
I588
aI588
aI588
aa(lp649
I588
aI588
aI588
aa(lp650
I588
aI588
aI588
aa(lp651
I588
aI588
aI588
aa(lp652
I588
aI588
aI588
aa(lp653
I620
aI620
aI620
aa(lp654
I620
aI620
aI620
aa(lp655
I0
aI0
aI0
aa(lp656
I0
aI0
aI0
aa(lp657
I0
aI0
aI0
aa(lp658
I0
aI0
aI0
aa(lp659
I0
aI0
aI0
aa(lp660
I0
aI0
aI0
aa(lp661
I0
aI0
aI0
aa(lp662
I0
aI0
aI0
aa(lp663
I0
aI0
aI0
aa(lp664
I0
aI0
aI0
aa(lp665
I0
aI0
aI0
aa(lp666
I0
aI0
aI0
aa(lp667
I0
aI0
aI0
aa(lp668
I0
aI0
aI0
aa(lp669
I0
aI0
aI0
aa(lp670
I0
aI0
aI0
aa(lp671
I0
aI0
aI0
aa(lp672
I0
aI0
aI0
aa(lp673
I0
aI0
aI0
aa(lp674
I0
aI0
aI0
aa(lp675
I0
aI0
aI0
aa(lp676
I0
aI0
aI0
aa(lp677
I0
aI0
aI0
aa(lp678
I0
aI0
aI0
aa(lp679
I619
aI619
aI619
aa(lp680
I588
aI588
aI588
aa(lp681
I0
aI0
aI0
aa(lp682
I0
aI619
aI619
aa(lp683
I620
aI620
aI620
aa(lp684
I0
aI0
aI0
aa(lp685
I0
aI0
aI0
aa(lp686
I0
aI0
aI0
aa(lp687
I0
aI0
aI0
aa(lp688
I0
aI0
aI0
aa(lp689
I0
aI0
aI0
aa(lp690
I0
aI0
aI0
aa(lp691
I0
aI0
aI0
aa(lp692
I0
aI0
aI0
aa(lp693
I0
aI0
aI0
aa(lp694
I0
aI0
aI0
aa(lp695
I0
aI0
aI0
aa(lp696
I0
aI0
aI0
aa(lp697
I0
aI0
aI0
aa(lp698
I0
aI0
aI0
aa(lp699
I0
aI0
aI0
aa(lp700
I0
aI0
aI0
aa(lp701
I0
aI0
aI0
aa(lp702
I0
aI0
aI0
aa(lp703
I0
aI0
aI0
aa(lp704
I0
aI0
aI0
aa(lp705
I0
aI0
aI0
aa(lp706
I0
aI0
aI0
aa(lp707
I0
aI0
aI0
aa(lp708
I0
aI0
aI0
aa(lp709
I0
aI0
aI0
aa(lp710
I0
aI0
aI0
aa(lp711
I0
aI0
aI0
aa(lp712
I0
aI0
aI0
aa(lp713
I0
aI0
aI0
aa(lp714
I0
aI0
aI0
aa(lp715
I0
aI0
aI0
aa(lp716
I0
aI0
aI0
aa(lp717
I0
aI0
aI0
aa(lp718
I0
aI0
aI0
aa(lp719
I0
aI0
aI0
aa(lp720
I0
aI0
aI0
aa(lp721
I0
aI0
aI0
aa(lp722
I0
aI0
aI0
aa(lp723
I0
aI0
aI0
aa(lp724
I0
aI0
aI0
aa(lp725
I0
aI0
aI0
aa(lp726
I0
aI0
aI0
aa(lp727
I0
aI0
aI0
aa(lp728
I0
aI0
aI0
aa(lp729
I0
aI0
aI0
aa(lp730
I0
aI0
aI0
aa(lp731
I0
aI0
aI0
aa(lp732
I0
aI0
aI0
aa(lp733
I0
aI0
aI0
aa(lp734
I0
aI0
aI0
aa(lp735
I0
aI0
aI0
aa(lp736
I0
aI0
aI0
aa(lp737
I0
aI0
aI0
aa(lp738
I0
aI0
aI0
aa(lp739
I0
aI0
aI0
aa(lp740
I0
aI0
aI0
aa(lp741
I0
aI0
aI0
aa(lp742
I0
aI0
aI0
aa(lp743
I0
aI0
aI0
aa(lp744
I0
aI0
aI0
aa(lp745
I0
aI0
aI0
aa(lp746
I0
aI0
aI0
aa(lp747
I0
aI0
aI0
aa(lp748
I0
aI0
aI0
aa(lp749
I0
aI0
aI0
aa(lp750
I0
aI0
aI0
aa(lp751
I0
aI0
aI0
aa(lp752
I0
aI0
aI0
aa(lp753
I0
aI0
aI0
aa(lp754
I0
aI0
aI0
aa(lp755
I0
aI0
aI0
aa(lp756
I0
aI0
aI0
aa(lp757
I0
aI0
aI0
aa(lp758
I0
aI0
aI0
aa(lp759
I0
aI0
aI0
aa(lp760
I0
aI0
aI0
aa(lp761
I0
aI0
aI0
aa(lp762
I0
aI0
aI0
aa(lp763
I0
aI0
aI0
aa(lp764
I0
aI0
aI0
aa(lp765
I0
aI0
aI0
aa(lp766
I0
aI0
aI0
aa(lp767
I0
aI0
aI0
aa(lp768
I0
aI0
aI0
aa(lp769
I0
aI0
aI0
aa(lp770
I0
aI0
aI0
aa(lp771
I0
aI0
aI0
aa(lp772
I0
aI0
aI0
aa(lp773
I0
aI0
aI0
aa(lp774
I0
aI0
aI0
aa(lp775
I0
aI0
aI0
aa(lp776
I0
aI0
aI0
aa(lp777
I0
aI0
aI0
aa(lp778
I0
aI0
aI0
aa(lp779
I0
aI0
aI0
aa(lp780
I0
aI0
aI0
aa(lp781
I0
aI0
aI0
aa(lp782
I0
aI0
aI0
aa(lp783
I0
aI0
aI0
aa(lp784
I0
aI0
aI0
aa(lp785
I0
aI0
aI0
aa(lp786
I0
aI0
aI0
aa(lp787
I0
aI0
aI0
aa(lp788
I0
aI0
aI0
aa(lp789
I0
aI0
aI0
aa(lp790
I0
aI0
aI0
aa(lp791
I0
aI0
aI0
aa(lp792
I0
aI0
aI0
aa(lp793
I0
aI0
aI0
aa(lp794
I0
aI0
aI0
aa(lp795
I0
aI0
aI0
aa(lp796
I0
aI0
aI0
aa(lp797
I0
aI0
aI0
aa(lp798
I0
aI0
aI0
aa(lp799
I0
aI0
aI0
aa(lp800
I0
aI0
aI0
aa(lp801
I0
aI0
aI0
aa(lp802
I0
aI0
aI0
aa(lp803
I0
aI0
aI0
aa(lp804
I0
aI0
aI0
aa(lp805
I0
aI0
aI0
aa(lp806
I0
aI0
aI0
aa(lp807
I0
aI0
aI0
aa(lp808
I0
aI0
aI0
aa(lp809
I0
aI0
aI0
aa(lp810
I0
aI0
aI0
aa(lp811
I0
aI0
aI0
aa(lp812
I0
aI0
aI0
aa(lp813
I0
aI0
aI0
aa(lp814
I0
aI0
aI0
aa(lp815
I0
aI0
aI0
aa(lp816
I0
aI0
aI0
aa(lp817
I0
aI0
aI0
aa(lp818
I0
aI0
aI0
aa(lp819
I0
aI0
aI0
aa(lp820
I0
aI0
aI0
aa(lp821
I0
aI0
aI0
aa(lp822
I0
aI0
aI0
aa(lp823
I0
aI0
aI0
aa(lp824
I0
aI0
aI0
aa(lp825
I0
aI0
aI0
aa(lp826
I0
aI0
aI0
aa(lp827
I0
aI0
aI0
aa(lp828
I0
aI0
aI0
aa(lp829
I0
aI0
aI0
aa(lp830
I0
aI0
aI0
aa(lp831
I0
aI0
aI0
aa(lp832
I0
aI0
aI0
aa(lp833
I0
aI0
aI0
aa(lp834
I0
aI0
aI0
aa(lp835
I0
aI0
aI0
aa(lp836
I0
aI0
aI0
aa(lp837
I0
aI0
aI0
aa(lp838
I0
aI0
aI0
aa(lp839
I0
aI0
aI0
aa(lp840
I0
aI0
aI0
aa(lp841
I0
aI0
aI0
aa(lp842
I0
aI0
aI0
aa(lp843
I0
aI0
aI0
aa(lp844
I0
aI0
aI0
aa(lp845
I0
aI0
aI0
aa(lp846
I0
aI0
aI0
aa(lp847
I0
aI0
aI0
aa(lp848
I0
aI0
aI0
aa(lp849
I0
aI0
aI0
aa(lp850
I0
aI0
aI0
aa(lp851
I0
aI0
aI0
aa(lp852
I0
aI0
aI0
aa(lp853
I0
aI0
aI0
aa(lp854
I0
aI0
aI0
aa(lp855
I0
aI0
aI0
aa(lp856
I0
aI0
aI0
aa(lp857
I0
aI0
aI0
aa(lp858
I0
aI0
aI0
aa(lp859
I0
aI0
aI0
aa(lp860
I0
aI0
aI0
aa(lp861
I0
aI0
aI0
aa(lp862
I0
aI0
aI0
aa(lp863
I0
aI0
aI0
aa(lp864
I0
aI0
aI0
aa(lp865
I0
aI0
aI0
aa(lp866
I0
aI0
aI0
aa(lp867
I0
aI0
aI0
aa(lp868
I0
aI0
aI0
aa(lp869
I0
aI0
aI0
aa(lp870
I0
aI0
aI0
aa(lp871
I0
aI0
aI0
aa(lp872
I0
aI0
aI0
aa(lp873
I0
aI0
aI0
aa(lp874
I0
aI0
aI0
aa(lp875
I0
aI0
aI0
aa(lp876
I0
aI0
aI0
aa(lp877
I0
aI0
aI0
aa(lp878
I0
aI0
aI0
aa(lp879
I0
aI0
aI0
aa(lp880
I0
aI0
aI0
aa(lp881
I0
aI0
aI0
aa(lp882
I0
aI0
aI0
aa(lp883
I0
aI0
aI0
aa(lp884
I0
aI0
aI0
aa(lp885
I0
aI0
aI0
aa(lp886
I0
aI0
aI0
aa(lp887
I0
aI0
aI0
aa(lp888
I0
aI0
aI0
aa(lp889
I0
aI0
aI0
aa(lp890
I0
aI0
aI0
aa(lp891
I0
aI0
aI0
aa(lp892
I0
aI0
aI0
aa(lp893
I0
aI0
aI0
aa(lp894
I0
aI0
aI0
aa(lp895
I0
aI0
aI0
aa(lp896
I0
aI0
aI0
aa(lp897
I0
aI0
aI0
aa(lp898
I0
aI0
aI0
aa(lp899
I0
aI0
aI0
aa(lp900
I0
aI0
aI0
aa(lp901
I0
aI0
aI0
aaa(lp902
I0
aI0
aI0
aI0
aI0
aI0
aI0
aI0
aI0
aI0
aI0
aI0
aI0
aI0
aI0
aI0
aI0
aI0
aI0
aI0
aI0
aI0
aI0
aI0
aI0
aI0
aI0
aI0
aI0
aI0
aI0
aI0
aI0
aI0
aI0
aI0
aI0
aI0
aI0
aI0
aI0
aI0
aI0
aI0
aI0
aI0
aI0
aI0
aI0
aI0
aI0
aI0
aI0
aI0
aI0
aI0
aI0
aI0
aI0
aI0
aI0
aI0
aI0
aI0
aI0
aI0
aI0
aI0
aI0
aI0
aI0
aI0
aI0
aI0
aI0
aI0
aI0
aI0
aI0
aI0
aI0
aI0
aI0
aI0
aI0
aI0
aI0
aI0
aI0
aI0
aI0
aI0
aI0
aI0
aI0
aI0
aI0
aI0
aI0
aI0
aI0
aI0
aI0
aI0
aI0
aI0
aI0
aI0
aI0
aI0
aI0
aI0
aI0
aI0
aI0
aI0
aI0
aI0
aI0
aI0
aI0
aI0
aI0
aI0
aI0
aI0
aI0
aI0
aI0
aI0
aI0
aI0
aI0
aI0
aI0
aI0
aI0
aI0
aI0
aI0
aI0
aI0
aI0
aI0
aI0
aI0
aI0
aI0
aI0
aI0
aI0
aI0
aI0
aI0
aI0
aI0
aI0
aI0
aI0
aI0
aI0
aI0
aI0
aI0
aI0
aI0
aI0
aI0
aI1
aI0
aI0
aI0
aI1
aI0
aI0
aI0
aI0
aI0
aI0
aI0
aI0
aI0
aI0
aI0
aI0
aI0
aI0
aI0
aI0
aI0
aI0
aI0
aI0
aI0
aI0
aI0
aI0
aI0
aI0
aI0
aI0
aI0
aI0
aI0
aI0
aI0
aI0
aI0
aI0
aI0
aI0
aI0
aI0
aI0
aI0
aI0
aI1
aI0
aI0
aI0
aI0
aI0
aI0
aI0
aI0
aI0
aI0
aI0
aI1
aI1
aI0
aI0
aI0
aI1
aI0
aI0
aI0
aI0
aI0
aI0
aI0
aI0
aI0
aI0
aI0
aI0
aI0
aI0
aI0
aI0
aI0
aI0
aI0
aI0
aI0
aI0
aI0
aI0
aI1
aI1
aI0
aI0
aI0
aI0
aI0
aI0
aI0
aI0
aI0
aI0
aI0
aI0
aI0
aI0
aI0
aI0
aI0
aI0
aI0
aI0
aI0
aI0
aI0
aI0
aI0
aI0
aI0
aI0
aI0
aI0
aI0
aI0
aI0
aI0
aI0
aI0
aI0
aI0
aI0
aI0
aI0
aI0
aI0
aI0
aI0
aI0
aI0
aI0
aI0
aI0
aI0
aI0
aI0
aI0
aI0
aI0
aI0
aI0
aI0
aI0
aI0
aI0
aI0
aI0
aI0
aI0
aI0
aI0
aI0
aI0
aI0
aI0
aI0
aI0
aI0
aI0
aI0
aI0
aI0
aI0
aI0
aI0
aI0
aI0
aI1
aI0
aI0
aI0
aI1
aI0
aI0
aI0
aI0
aI0
aI0
aI0
aI0
aI0
aI0
aI0
aI0
aI0
aI0
aI0
aI0
aI0
aI0
aI0
aI0
aI0
aI0
aI0
aI0
aI1
aI0
aI1
aI1
aI0
aI0
aI0
aI0
aI0
aI0
aI1
aI0
aI0
aI0
aI0
aI0
aI0
aI0
aI0
aI0
aI0
aI0
aI0
aI0
aI0
aI0
aI0
aI0
aI0
aI0
aI0
aI1
aI0
aI2
aI0
aI0
aI0
aI0
aI0
aI0
aI0
aI0
aI0
aI0
aI0
aI0
aI0
aI0
aI0
aI0
aI0
aI0
aI0
aI0
aI0
aI0
aI0
aI0
aI0
aI0
aI1
aI0
aI0
aI1
aI0
aI0
aI0
aI0
aI0
aI0
aI0
aI0
aI0
aI0
aI0
aI0
aI0
aI0
aI0
aI0
aI0
aI0
aI0
aI0
aI0
aI0
aI0
aI0
aI0
aI0
aI1
aI0
aI0
aI1
aI0
aI0
aI0
aI0
aI0
aI0
aI0
aI0
aI0
aI0
aI0
aI0
aI0
aI0
aI0
aI0
aI0
aI0
aI0
aI0
aI0
aI0
aI0
aI0
aI0
aI0
aI0
aI0
aI1
aI0
aI0
aI0
aI0
aI0
aI0
aI0
aI0
aI0
aI0
aI0
aI0
aI0
aI0
aI0
aI0
aI0
aI0
aI0
aI0
aI0
aI0
aI0
aI0
aI0
aI0
aI0
aI0
aI0
aI0
aI0
aI0
aI0
aI0
aI0
aI0
aI0
aI0
aI0
aI0
aI0
aI0
aI0
aI0
aI0
aI0
aI0
aI0
aI0
aI0
aI0
aI0
aI0
aI0
aI0
aI0
aI0
aI0
aI0
aI0
aI0
aI0
aI0
aI0
aI0
aI0
aI0
aI0
aI0
aI0
aI0
aI0
aI0
aI0
aI0
aI0
aI0
aI0
aI0
aI0
aI0
aI0
aI0
aI0
aI0
aI0
aI0
aI0
aI0
aI0
aI0
aI0
aI1
aI0
aI0
aI0
aI0
aI0
aI0
aI0
aI0
aI0
aI0
aI0
aI0
aI0
aI0
aI0
aI0
aI0
aI0
aI0
aI0
aI0
aI0
aI0
aI0
aI0
aI0
aI0
aI0
aI0
aI0
aI1
aI1
aI0
aI0
aI0
aI0
aI0
aI0
aI0
aI0
aI0
aI0
aI0
aI0
aI0
aI0
aI0
aI0
aI0
aI0
aI0
aI0
aI0
aI0
aI0
aI0
aI0
aI0
aI0
aI0
aI0
aI0
aI0
aI0
aI0
aI0
aI0
aI0
aI0
aI0
aI0
aI0
aI0
aI0
aI0
aI0
aI0
aI0
aI0
aI0
aI0
aI0
aI0
aI0
aI0
aI0
aI0
aI0
aI0
aI0
aI0
aI0
aI0
aI0
aI0
aI0
aI0
aI0
aI0
aI0
aI0
aI0
aI0
aI0
aI0
aI0
aI0
aI0
aI0
aI0
aI0
aI0
aI0
aI0
aI0
aI0
aI0
aI0
aI0
aI0
aI0
aI0
aI0
aI0
aI0
aI0
aI0
aI0
aI0
aI0
aI0
aI0
aI0
aI0
aI0
aI0
aI0
aI0
aI0
aI0
aI0
aI0
aI0
aI0
aI0
aI0
aI0
aI0
aI0
aI0
aI0
aI0
aI0
aI0
aI0
aI0
aI0
aI0
aI0
aI0
aI0
aI0
aI0
aI0
aI0
aI0
aI0
aI0
aI0
aI0
aI0
aI0
aI0
aI0
aI0
aI0
aI0
aI0
aI0
aI0
aI0
aI0
aI0
aI0
aI0
aI0
aI0
aI0
aI0
aI0
aI0
aI0
aI0
aI0
aI0
aI0
aI0
aI0
aI0
aI0
aI0
aI0
aI0
aI0
aI0
aI0
aI0
aI0
aI0
aI0
aI0
aI0
aI0
aI0
aI0
aI0
aI0
aI0
aI0
aI0
aI0
aI0
aI0
aI0
aI0
aI0
aI0
aI0
aI0
aI0
aI0
aI0
aI0
aI0
aI0
aI0
aI0
aI0
aI0
aI0
aI0
aI0
aI0
aI0
aI0
aI0
aI0
aI0
aI0
aI0
aI0
aI0
aI0
aI0
aI0
aI0
aI0
aI0
aI0
aI0
aI0
aI0
aI0
aI0
aI0
aI0
aI0
aI0
aI0
aI0
aI0
aI0
aI0
aI0
aI0
aI0
aI0
aI0
aI0
aI0
aI0
aI0
aI0
aI0
aI0
aI0
aI0
aI0
aI0
aI0
aI0
aI0
aI0
aI0
aI0
aI0
aI0
aI0
aI0
aI0
aI0
aI0
aI0
aI0
aI0
aI0
aI0
aI0
aI0
aI0
aI0
aa(dp903
I0
I00
sI1
I00
sI2
I00
sI3
I00
sI4
I00
sI5
I00
sI6
I00
sI7
I00
sI8
I00
sI9
I00
sI10
I00
sI11
I00
sI12
I00
sI13
I00
sI14
I00
sI15
I00
sI16
I00
sI17
I00
sI18
I00
sI19
I00
sI20
I00
sI21
I00
sI22
I00
sI23
I00
sI24
I00
sI25
I00
sI26
I00
sI27
I00
sI28
I00
sI29
I00
sI30
I00
sI31
I00
sI32
I00
sI33
I00
sI34
I00
sI35
I00
sI36
I00
sI37
I00
sI38
I00
sI39
I00
sI40
I00
sI41
I00
sI42
I00
sI43
I00
sI44
I00
sI45
I00
sI46
I00
sI47
I00
sI48
I00
sI49
I00
sI50
I00
sI51
I00
sI52
I00
sI53
I00
sI54
I00
sI55
I00
sI56
I00
sI57
I00
sI58
I00
sI59
I00
sI60
I00
sI61
I00
sI62
I00
sI63
I00
sI64
I00
sI65
I00
sI66
I00
sI67
I00
sI68
I00
sI69
I00
sI70
I00
sI71
I00
sI72
I00
sI73
I00
sI74
I00
sI75
I00
sI76
I00
sI77
I00
sI78
I00
sI79
I00
sI80
I00
sI81
I00
sI82
I00
sI83
I00
sI84
I00
sI85
I00
sI86
I00
sI87
I00
sI88
I00
sI89
I00
sI90
I00
sI91
I00
sI92
I00
sI93
I00
sI94
I00
sI95
I00
sI96
I00
sI97
I00
sI98
I00
sI99
I00
sI100
I00
sI101
I00
sI102
I00
sI103
I00
sI104
I00
sI105
I00
sI106
I00
sI107
I00
sI108
I00
sI109
I00
sI110
I00
sI111
I00
sI112
I00
sI113
I00
sI114
I00
sI115
I00
sI116
I00
sI117
I00
sI118
I00
sI119
I00
sI120
I00
sI121
I00
sI122
I00
sI123
I00
sI124
I00
sI125
I00
sI126
I00
sI127
I00
sI128
I00
sI129
I00
sI130
I00
sI131
I00
sI132
I00
sI133
I00
sI134
I00
sI135
I00
sI136
I00
sI137
I00
sI138
I00
sI139
I00
sI140
I00
sI141
I00
sI142
I00
sI143
I00
sI144
I00
sI145
I00
sI146
I00
sI147
I00
sI148
I00
sI149
I00
sI150
I00
sI151
I00
sI152
I00
sI153
I00
sI154
I00
sI155
I00
sI156
I00
sI157
I00
sI158
I00
sI159
I00
sI160
I00
sI161
I00
sI162
I00
sI163
I00
sI164
I00
sI165
I00
sI166
I00
sI167
I00
sI168
I00
sI169
I00
sI170
I00
sI171
I00
sI172
I00
sI173
I00
sI174
I00
sI175
I00
sI176
I00
sI177
I00
sI178
I00
sI179
I00
sI180
I00
sI181
I00
sI182
I00
sI183
I00
sI184
I00
sI185
I00
sI186
I00
sI187
I00
sI188
I00
sI189
I00
sI190
I00
sI191
I00
sI192
I00
sI193
I00
sI194
I00
sI195
I00
sI196
I00
sI197
I00
sI198
I00
sI199
I00
sI200
I00
sI201
I00
sI202
I00
sI203
I00
sI204
I00
sI205
I00
sI206
I00
sI207
I00
sI208
I00
sI209
I00
sI210
I00
sI211
I00
sI212
I00
sI213
I00
sI214
I00
sI215
I00
sI216
I00
sI217
I00
sI218
I00
sI219
I00
sI220
I00
sI221
I00
sI222
I00
sI223
I00
sI224
I00
sI225
I00
sI226
I00
sI227
I00
sI228
I00
sI229
I00
sI230
I00
sI231
I00
sI232
I00
sI233
I00
sI234
I00
sI235
I00
sI236
I00
sI237
I00
sI238
I00
sI239
I00
sI240
I00
sI241
I00
sI242
I00
sI243
I00
sI244
I00
sI245
I00
sI246
I00
sI247
I00
sI248
I00
sI249
I00
sI250
I00
sI251
I00
sI252
I00
sI253
I00
sI254
I00
sI255
I00
sI256
I00
sI257
I00
sI258
I00
sI259
I00
sI260
I00
sI261
I00
sI262
I00
sI263
I00
sI264
I00
sI265
I00
sI266
I00
sI267
I00
sI268
I00
sI269
I00
sI270
I00
sI271
I00
sI272
I00
sI273
I00
sI274
I00
sI275
I00
sI276
I00
sI277
I00
sI278
I00
sI279
I00
sI280
I00
sI281
I00
sI282
I00
sI283
I00
sI284
I00
sI285
I00
sI286
I00
sI287
I00
sI288
I00
sI289
I00
sI290
I00
sI291
I00
sI292
I00
sI293
I00
sI294
I00
sI295
I00
sI296
I00
sI297
I00
sI298
I00
sI299
I00
sI300
I00
sI301
I00
sI302
I00
sI303
I00
sI304
I00
sI305
I00
sI306
I00
sI307
I00
sI308
I00
sI309
I00
sI310
I00
sI311
I00
sI312
I00
sI313
I00
sI314
I00
sI315
I00
sI316
I00
sI317
I00
sI318
I00
sI319
I00
sI320
I00
sI321
I00
sI322
I00
sI323
I00
sI324
I00
sI325
I00
sI326
I00
sI327
I00
sI328
I00
sI329
I00
sI330
I00
sI331
I00
sI332
I00
sI333
I00
sI334
I00
sI335
I00
sI336
I00
sI337
I00
sI338
I00
sI339
I00
sI340
I00
sI341
I00
sI342
I00
sI343
I00
sI344
I00
sI345
I00
sI346
I00
sI347
I00
sI348
I00
sI349
I00
sI350
I00
sI351
I00
sI352
I00
sI353
I00
sI354
I00
sI355
I00
sI356
I00
sI357
I00
sI358
I00
sI359
I00
sI360
I00
sI361
I00
sI362
I00
sI363
I00
sI364
I00
sI365
I00
sI366
I00
sI367
I00
sI368
I00
sI369
I00
sI370
I00
sI371
I00
sI372
I00
sI373
I00
sI374
I00
sI375
I00
sI376
I00
sI377
I00
sI378
I00
sI379
I00
sI380
I00
sI381
I00
sI382
I00
sI383
I00
sI384
I00
sI385
I00
sI386
I00
sI387
I00
sI388
I00
sI389
I00
sI390
I00
sI391
I00
sI392
I00
sI393
I00
sI394
I00
sI395
I00
sI396
I00
sI397
I00
sI398
I00
sI399
I00
sI400
I00
sI401
I00
sI402
I00
sI403
I00
sI404
I00
sI405
I00
sI406
I00
sI407
I00
sI408
I00
sI409
I00
sI410
I00
sI411
I00
sI412
I00
sI413
I00
sI414
I00
sI415
I00
sI416
I00
sI417
I00
sI418
I00
sI419
I00
sI420
I00
sI421
I00
sI422
I00
sI423
I00
sI424
I00
sI425
I00
sI426
I00
sI427
I00
sI428
I00
sI429
I00
sI430
I00
sI431
I00
sI432
I00
sI433
I00
sI434
I00
sI435
I00
sI436
I00
sI437
I00
sI438
I00
sI439
I00
sI440
I00
sI441
I00
sI442
I00
sI443
I00
sI444
I00
sI445
I00
sI446
I00
sI447
I00
sI448
I00
sI449
I00
sI450
I00
sI451
I00
sI452
I00
sI453
I00
sI454
I00
sI455
I00
sI456
I00
sI457
I00
sI458
I00
sI459
I00
sI460
I00
sI461
I00
sI462
I00
sI463
I00
sI464
I00
sI465
I00
sI466
I00
sI467
I00
sI468
I00
sI469
I00
sI470
I00
sI471
I00
sI472
I00
sI473
I00
sI474
I00
sI475
I00
sI476
I00
sI477
I00
sI478
I00
sI479
I00
sI480
I00
sI481
I00
sI482
I00
sI483
I00
sI484
I00
sI485
I00
sI486
I00
sI487
I00
sI488
I00
sI489
I00
sI490
I00
sI491
I00
sI492
I00
sI493
I00
sI494
I00
sI495
I00
sI496
I00
sI497
I00
sI498
I00
sI499
I00
sI500
I00
sI501
I00
sI502
I00
sI503
I00
sI504
I00
sI505
I00
sI506
I00
sI507
I00
sI508
I00
sI509
I00
sI510
I00
sI511
I00
sI512
I00
sI513
I00
sI514
I00
sI515
I00
sI516
I00
sI517
I00
sI518
I00
sI519
I00
sI520
I00
sI521
I00
sI522
I00
sI523
I00
sI524
I00
sI525
I00
sI526
I00
sI527
I00
sI528
I00
sI529
I00
sI530
I00
sI531
I00
sI532
I00
sI533
I00
sI534
I00
sI535
I00
sI536
I00
sI537
I00
sI538
I00
sI539
I00
sI540
I00
sI541
I00
sI542
I00
sI543
I00
sI544
I00
sI545
I00
sI546
I00
sI547
I00
sI548
I00
sI549
I00
sI550
I00
sI551
I00
sI552
I00
sI553
I00
sI554
I00
sI555
I00
sI556
I00
sI557
I00
sI558
I00
sI559
I00
sI560
I00
sI561
I00
sI562
I00
sI563
I00
sI564
I00
sI565
I00
sI566
I00
sI567
I00
sI568
I00
sI569
I00
sI570
I00
sI571
I00
sI572
I00
sI573
I00
sI574
I00
sI575
I00
sI576
I00
sI577
I00
sI578
I00
sI579
I00
sI580
I00
sI581
I00
sI582
I00
sI583
I00
sI584
I00
sI585
I00
sI586
I00
sI587
I00
sI588
I00
sI589
I00
sI590
I00
sI591
I00
sI592
I00
sI593
I00
sI594
I00
sI595
I00
sI596
I00
sI597
I00
sI598
I00
sI599
I00
sI600
I00
sI601
I00
sI602
I00
sI603
I00
sI604
I00
sI605
I00
sI606
I00
sI607
I00
sI608
I00
sI609
I00
sI610
I00
sI611
I00
sI612
I00
sI613
I00
sI614
I00
sI615
I00
sI616
I00
sI617
I00
sI618
I00
sI619
I00
sI620
I00
sI621
I00
sI622
I00
sI623
I00
sI624
I00
sI625
I00
sI626
I00
sI627
I00
sI628
I00
sI629
I00
sI630
I00
sI631
I00
sI632
I00
sI633
I00
sI634
I00
sI635
I00
sI636
I00
sI637
I00
sI638
I00
sI639
I00
sI640
I00
sI641
I00
sI642
I00
sI643
I00
sI644
I00
sI645
I00
sI646
I00
sI647
I00
sI648
I00
sI649
I00
sI650
I00
sI651
I00
sI652
I00
sI653
I00
sI654
I00
sI655
I00
sI656
I00
sI657
I00
sI658
I00
sI659
I00
sI660
I00
sI661
I00
sI662
I00
sI663
I00
sI664
I00
sI665
I00
sI666
I00
sI667
I00
sI668
I00
sI669
I00
sI670
I00
sI671
I00
sI672
I00
sI673
I00
sI674
I00
sI675
I00
sI676
I00
sI677
I00
sI678
I00
sI679
I00
sI680
I00
sI681
I00
sI682
I00
sI683
I00
sI684
I00
sI685
I00
sI686
I00
sI687
I00
sI688
I00
sI689
I00
sI690
I00
sI691
I00
sI692
I00
sI693
I00
sI694
I00
sI695
I00
sI696
I00
sI697
I00
sI698
I00
sI699
I00
sI700
I00
sI701
I00
sI702
I00
sI703
I00
sI704
I00
sI705
I00
sI706
I00
sI707
I00
sI708
I00
sI709
I00
sI710
I00
sI711
I00
sI712
I00
sI713
I00
sI714
I00
sI715
I00
sI716
I00
sI717
I00
sI718
I00
sI719
I00
sI720
I00
sI721
I00
sI722
I00
sI723
I00
sI724
I00
sI725
I00
sI726
I00
sI727
I00
sI728
I00
sI729
I00
sI730
I00
sI731
I00
sI732
I00
sI733
I00
sI734
I00
sI735
I00
sI736
I00
sI737
I00
sI738
I00
sI739
I00
sI740
I00
sI741
I00
sI742
I00
sI743
I00
sI744
I00
sI745
I00
sI746
I00
sI747
I00
sI748
I00
sI749
I00
sI750
I00
sI751
I00
sI752
I00
sI753
I00
sI754
I00
sI755
I00
sI756
I00
sI757
I00
sI758
I00
sI759
I00
sI760
I00
sI761
I00
sI762
I00
sI763
I00
sI764
I00
sI765
I00
sI766
I00
sI767
I00
sI768
I00
sI769
I00
sI770
I00
sI771
I00
sI772
I00
sI773
I00
sI774
I00
sI775
I00
sI776
I00
sI777
I00
sI778
I00
sI779
I00
sI780
I00
sI781
I00
sI782
I00
sI783
I00
sI784
I00
sI785
I00
sI786
I00
sI787
I00
sI788
I00
sI789
I00
sI790
I00
sI791
I00
sI792
I00
sI793
I00
sI794
I00
sI795
I00
sI796
I00
sI797
I00
sI798
I00
sI799
I00
sI800
I00
sI801
I00
sI802
I00
sI803
I00
sI804
I00
sI805
I00
sI806
I00
sI807
I00
sI808
I00
sI809
I00
sI810
I00
sI811
I00
sI812
I00
sI813
I00
sI814
I00
sI815
I00
sI816
I00
sI817
I00
sI818
I00
sI819
I00
sI820
I00
sI821
I00
sI822
I00
sI823
I00
sI824
I00
sI825
I00
sI826
I00
sI827
I00
sI828
I00
sI829
I00
sI830
I00
sI831
I00
sI832
I00
sI833
I00
sI834
I00
sI835
I00
sI836
I00
sI837
I00
sI838
I00
sI839
I00
sI840
I00
sI841
I00
sI842
I00
sI843
I00
sI844
I00
sI845
I00
sI846
I00
sI847
I00
sI848
I00
sI849
I00
sI850
I00
sI851
I00
sI852
I00
sI853
I00
sI854
I00
sI855
I00
sI856
I00
sI857
I00
sI858
I00
sI859
I00
sI860
I00
sI861
I00
sI862
I00
sI863
I00
sI864
I00
sI865
I00
sI866
I00
sI867
I00
sI868
I00
sI869
I00
sI870
I00
sI871
I00
sI872
I00
sI873
I00
sI874
I00
sI875
I00
sI876
I00
sI877
I00
sI878
I00
sI879
I00
sI880
I00
sI881
I00
sI882
I00
sI883
I00
sI884
I00
sI885
I00
sI886
I00
sI887
I00
sI888
I00
sI889
I00
sI890
I00
sI891
I00
sI892
I00
sI893
I00
sI894
I00
sI895
I00
sI896
I00
sI897
I00
sI898
I00
sI899
I00
sa.