(dp0
I0
(F-87.04482479542781
F35.97207164705304
tp1
sI1
(F-87.0269821052474
F35.97222517207612
tp2
sI2
(F-87.00913934679377
F35.97237605282773
tp3
sI3
(F-86.9912965212527
F35.97252428929301
tp4
sI4
(F-86.97345362980998
F35.972669881457506
tp5
sI5
(F-86.95561067365138
F35.9728128293069
tp6
sI6
(F-86.93776765396275
F35.97295313282718
tp7
sI7
(F-86.91992457192995
F35.973090792004555
tp8
sI8
(F-86.90208142873885
F35.97322580682557
tp9
sI9
(F-86.88423822557539
F35.973358177276964
tp10
sI10
(F-86.86639496362545
F35.97348790334575
tp11
sI11
(F-86.84855164407502
F35.97361498501924
tp12
sI12
(F-86.83070826811006
F35.973739422284936
tp13
sI13
(F-86.81286483691656
F35.97386121513064
tp14
sI14
(F-86.79502135168057
F35.97398036354442
tp15
sI15
(F-86.77717781358811
F35.97409686751458
tp16
sI16
(F-86.75933422382525
F35.97421072702971
tp17
sI17
(F-86.74149058357807
F35.9743219420786
tp18
sI18
(F-86.72364689403268
F35.974430512650436
tp19
sI19
(F-86.7058031563752
F35.974536438734454
tp20
sI20
(F-86.68795937179178
F35.974639720320354
tp21
sI21
(F-86.67011554146858
F35.97474035739799
tp22
sI22
(F-86.65227166659176
F35.974838349957466
tp23
sI23
(F-86.63442774834753
F35.97493369798918
tp24
sI24
(F-86.61658378792212
F35.97502640148379
tp25
sI25
(F-86.59873978650177
F35.975116460432226
tp26
sI26
(F-86.58089574527268
F35.97520387482561
tp27
sI27
(F-86.56305166542116
F35.975288644655414
tp28
sI28
(F-86.54520754813348
F35.975370769913305
tp29
sI29
(F-86.52553129107812
F35.97545826135865
tp30
sI30
(F-87.04501532316354
F35.98657548814439
tp31
sI31
(F-87.02716937978339
F35.986729040692104
tp32
sI32
(F-87.00932336809267
F35.98687994849423
tp33
sI33
(F-86.99147728927781
F35.98702821153601
tp34
sI34
(F-86.97363114452521
F35.98717382980287
tp35
sI35
(F-86.95578493502136
F35.98731680328056
tp36
sI36
(F-86.9379386619527
F35.98745713195505
tp37
sI37
(F-86.92009232650577
F35.98759481581255
tp38
sI38
(F-86.90224592986708
F35.9877298548396
tp39
sI39
(F-86.8843994732232
F35.987862249022946
tp40
sI40
(F-86.86655295776069
F35.98799199834959
tp41
sI41
(F-86.84870638466616
F35.98811910280683
tp42
sI42
(F-86.83085975512624
F35.988243562382195
tp43
sI43
(F-86.81301307032757
F35.98836537706344
tp44
sI44
(F-86.79516633145684
F35.98848454683866
tp45
sI45
(F-86.77731953970071
F35.98860107169618
tp46
sI46
(F-86.75947269624591
F35.988714951624544
tp47
sI47
(F-86.74162580227917
F35.98882618661257
tp48
sI48
(F-86.72377885898725
F35.988934776649415
tp49
sI49
(F-86.70593186755691
F35.98904072172435
tp50
sI50
(F-86.68808482917495
F35.989144021827
tp51
sI51
(F-86.67023774502817
F35.98924467694731
tp52
sI52
(F-86.65239061630342
F35.989342687075336
tp53
sI53
(F-86.63454344418754
F35.98943805220148
tp54
sI54
(F-86.61669622986739
F35.9895307723164
tp55
sI55
(F-86.59884897452983
F35.989620847411
tp56
sI56
(F-86.58100167936179
F35.98970827747645
tp57
sI57
(F-86.56315434555017
F35.98979306250416
tp58
sI58
(F-86.5453069742819
F35.989875202485834
tp59
sI59
(F-86.5256271291291
F35.98996270961703
tp60
sI60
(F-87.0452059203962
F36.00107928405568
tp61
sI61
(F-87.02735672262993
F36.00123286412817
tp62
sI62
(F-87.00950745651572
F36.001383798980996
tp63
sI63
(F-86.99165812324063
F36.0015320885994
tp64
sI64
(F-86.97380872399172
F36.00167773296878
tp65
sI65
(F-86.95595925995612
F36.00182073207492
tp66
sI66
(F-86.93810973232095
F36.00196108590376
tp67
sI67
(F-86.92026014227335
F36.00209879444157
tp68
sI68
(F-86.90241049100051
F36.00223385767481
tp69
sI69
(F-86.88456077968962
F36.0023662755902
tp70
sI70
(F-86.86671100952795
F36.00249604817487
tp71
sI71
(F-86.8488611817027
F36.00262317541599
tp72
sI72
(F-86.83101129740119
F36.002747657301136
tp73
sI73
(F-86.81316135781067
F36.002869493818075
tp74
sI74
(F-86.79531136411849
F36.00298868495487
tp75
sI75
(F-86.77746131751199
F36.003105230699845
tp76
sI76
(F-86.75961121917852
F36.003219131041554
tp77
sI77
(F-86.74176107030546
F36.00333038596886
tp78
sI78
(F-86.72391087208024
F36.003438995470816
tp79
sI79
(F-86.70606062569026
F36.003544959536754
tp80
sI80
(F-86.68821033232294
F36.003648278156355
tp81
sI81
(F-86.67035999316577
F36.003748951319395
tp82
sI82
(F-86.65250960940624
F36.00384697901607
tp83
sI83
(F-86.6346591822318
F36.00394236123674
tp84
sI84
(F-86.61680871283002
F36.004035097972064
tp85
sI85
(F-86.5989582023884
F36.00412518921296
tp86
sI86
(F-86.58110765209447
F36.00421263495051
tp87
sI87
(F-86.56325706313584
F36.004297435176234
tp88
sI88
(F-86.54540643670003
F36.00437958988178
tp89
sI89
(F-86.52572300214096
F36.004467112698954
tp90
sI90
(F-87.04539658716384
F36.01558303385401
tp91
sI91
(F-87.0275441338244
F36.01573664145141
tp92
sI92
(F-87.00969161209966
F36.01588760335509
tp93
sI93
(F-86.99183902317726
F36.01603591955025
tp94
sI94
(F-86.97398636824495
F36.016181590022356
tp95
sI95
(F-86.95613364849046
F36.01632461475709
tp96
sI96
(F-86.9382808651016
F36.01646499374046
tp97
sI97
(F-86.92042801926615
F36.01660272695868
tp98
sI98
(F-86.90257511217197
F36.01673781439823
tp99
sI99
(F-86.88472214500688
F36.01687025604588
tp100
sI100
(F-86.86686911895876
F36.01700005188865
tp101
sI101
(F-86.84901603521554
F36.0171272019138
tp102
sI102
(F-86.8311628949651
F36.01725170610886
tp103
sI103
(F-86.81330969939543
F36.01737356446161
tp104
sI104
(F-86.79545644969448
F36.01749277696011
tp105
sI105
(F-86.77760314705023
F36.01760934359268
tp106
sI106
(F-86.75974979265071
F36.01772326434787
tp107
sI107
(F-86.74189638768395
F36.01783453921452
tp108
sI108
(F-86.72404293333798
F36.017943168181716
tp109
sI109
(F-86.7061894308009
F36.0180491512388
tp110
sI110
(F-86.68833588126078
F36.01815248837538
tp111
sI111
(F-86.67048228590575
F36.018253179581315
tp112
sI112
(F-86.65262864592393
F36.01835122484673
tp113
sI113
(F-86.63477496250346
F36.01844662416205
tp114
sI114
(F-86.61692123683251
F36.01853937751787
tp115
sI115
(F-86.59906747009924
F36.018629484905084
tp116
sI116
(F-86.58121366349188
F36.01871694631492
tp117
sI117
(F-86.56335981819863
F36.018801761738736
tp118
sI118
(F-86.54550593540772
F36.01888393116823
tp119
sI119
(F-86.52581891013284
F36.01897146967148
tp120
sI120
(F-87.04558732350446
F36.03008673660626
tp121
sI121
(F-87.02773161340424
F36.030240371728745
tp122
sI122
(F-87.00987583488126
F36.03039136068346
tp123
sI123
(F-86.99201998912382
F36.03053970345555
tp124
sI124
(F-86.97416407732034
F36.03068540003047
tp125
sI125
(F-86.9563081006592
F36.030828450393976
tp126
sI126
(F-86.93845206032886
F36.03096885453199
tp127
sI127
(F-86.92059595751775
F36.03110661243078
tp128
sI128
(F-86.90273979341433
F36.031241724076786
tp129
sI129
(F-86.88488356920715
F36.03137418945681
tp130
sI130
(F-86.86702728608472
F36.03150400855784
tp131
sI131
(F-86.84917094523557
F36.03163118136714
tp132
sI132
(F-86.8313145478483
F36.03175570787223
tp133
sI133
(F-86.81345809511147
F36.03187758806094
tp134
sI134
(F-86.79560158821376
F36.03199682192126
tp135
sI135
(F-86.77774502834376
F36.03211340944154
tp136
sI136
(F-86.75988841669016
F36.032227350610356
tp137
sI137
(F-86.74203175444161
F36.03233864541648
tp138
sI138
(F-86.72417504278685
F36.032447293849025
tp139
sI139
(F-86.7063182829146
F36.03255329589734
tp140
sI140
(F-86.68846147601356
F36.03265665155103
tp141
sI141
(F-86.67060462327252
F36.032757360799955
tp142
sI142
(F-86.65274772588027
F36.03285542363423
tp143
sI143
(F-86.63489078502559
F36.03295084004426
tp144
sI144
(F-86.61703380189729
F36.03304361002067
tp145
sI145
(F-86.5991767776842
F36.03313373355435
tp146
sI146
(F-86.5813197135752
F36.0332212106365
tp147
sI147
(F-86.56346261075912
F36.03330604125852
tp148
sI148
(F-86.54560547042483
F36.03338822541206
tp149
sI149
(F-86.52591485312387
F36.03347577960144
tp150
sI150
(F-87.04577812945621
F36.04459039137924
tp151
sI151
(F-87.02791916140686
F36.04474405402699
tp152
sI152
(F-87.01006012489727
F36.04489507003287
tp153
sI153
(F-86.99220102111643
F36.04504343938203
tp154
sI154
(F-86.97434185125337
F36.045189162059955
tp155
sI155
(F-86.95648261649715
F36.04533223805235
tp156
sI156
(F-86.93862331803687
F36.04547266734517
tp157
sI157
(F-86.9207639570616
F36.04561044992465
tp158
sI158
(F-86.90290453476048
F36.045745585777276
tp159
sI159
(F-86.88504505232268
F36.04587807488981
tp160
sI160
(F-86.86718551093736
F36.04600791724923
tp161
sI161
(F-86.84932591179373
F36.046135112842805
tp162
sI162
(F-86.83146625608101
F36.04625966165811
tp163
sI163
(F-86.81360654498845
F36.04638156368285
tp164
sI164
(F-86.79574677970531
F36.04650081890517
tp165
sI165
(F-86.77788696142092
F36.046617427313265
tp166
sI166
(F-86.76002709132455
F36.04673138889577
tp167
sI167
(F-86.74216717060553
F36.04684270364148
tp168
sI168
(F-86.72430720045324
F36.046951371539514
tp169
sI169
(F-86.70644718205705
F36.04705739257916
tp170
sI170
(F-86.68858711660634
F36.04716076675007
tp171
sI171
(F-86.67072700529053
F36.047261494042075
tp172
sI172
(F-86.65286684929904
F36.04735957444533
tp173
sI173
(F-86.63500664982134
F36.04745500795018
tp174
sI174
(F-86.61714640804686
F36.047547794547256
tp175
sI175
(F-86.59928612516512
F36.04763793422754
tp176
sI176
(F-86.58142580236559
F36.04772542698208
tp177
sI177
(F-86.56356544083778
F36.04781027280235
tp178
sI178
(F-86.54570504177124
F36.047892471680065
tp179
sI179
(F-86.52601083113323
F36.047980041555654
tp180
sI180
(F-87.04596900505717
F36.05909399723959
tp181
sI181
(F-87.02810677786972
F36.059247687412736
tp182
sI182
(F-87.01024448218452
F36.05939873046994
tp183
sI183
(F-86.99238211919125
F36.05954712639634
tp184
sI184
(F-86.97451969007959
F36.059692875177426
tp185
sI185
(F-86.95665719603922
F36.059835976798844
tp186
sI186
(F-86.93879463825988
F36.05997643124663
tp187
sI187
(F-86.92093201793132
F36.06011423850695
tp188
sI188
(F-86.90306933624335
F36.06024939856632
tp189
sI189
(F-86.88520659438572
F36.06038191141147
tp190
sI190
(F-86.86734379354833
F36.060511777029426
tp191
sI191
(F-86.84948093492098
F36.06063899540744
tp192
sI192
(F-86.83161801969356
F36.06076356653302
tp193
sI193
(F-86.81375504905598
F36.06088549039397
tp194
sI194
(F-86.79589202419815
F36.06100476697836
tp195
sI195
(F-86.77802894631003
F36.061121396274395
tp196
sI196
(F-86.76016581658155
F36.061235378270744
tp197
sI197
(F-86.74230263620272
F36.06134671295616
tp198
sI198
(F-86.72443940636353
F36.06145540031975
tp199
sI199
(F-86.70657612825403
F36.06156144035089
tp200
sI200
(F-86.68871280306422
F36.0616648330391
tp201
sI201
(F-86.6708494319842
F36.06176557837433
tp202
sI202
(F-86.65298601620404
F36.06186367634662
tp203
sI203
(F-86.63512255691384
F36.061959126946405
tp204
sI204
(F-86.6172590553037
F36.06205193016426
tp205
sI205
(F-86.5993955125638
F36.062142085991155
tp206
sI206
(F-86.58153192988424
F36.06222959441821
tp207
sI207
(F-86.56366830845519
F36.062314455436876
tp208
sI208
(F-86.54580464946686
F36.06239666903877
tp209
sI209
(F-86.52610684418009
F36.06248425460071
tp210
sI210
(F-87.0461599503455
F36.073597553253805
tp211
sI211
(F-87.02829446283032
F36.07375127095252
tp212
sI212
(F-87.01042890677988
F36.0739023410612
tp213
sI213
(F-86.99256328338448
F36.074050763565005
tp214
sI214
(F-86.97469759383449
F36.07419653844935
tp215
sI215
(F-86.95683183932023
F36.07433966569997
tp216
sI216
(F-86.93896602103209
F36.074480145302836
tp217
sI217
(F-86.92110014016046
F36.07461797724414
tp218
sI218
(F-86.90323419789583
F36.074753161510394
tp219
sI219
(F-86.88536819542858
F36.07488569808832
tp220
sI220
(F-86.86750213394923
F36.07501558696493
tp221
sI221
(F-86.8496360146483
F36.07514282812748
tp222
sI222
(F-86.83176983871631
F36.07526742156351
tp223
sI223
(F-86.81390360734378
F36.075389367260776
tp224
sI224
(F-86.79603732172131
F36.07550866520734
tp225
sI225
(F-86.77817098303947
F36.07562531539145
tp226
sI226
(F-86.76030459248892
F36.07573931780175
tp227
sI227
(F-86.74243815126026
F36.07585067242699
tp228
sI228
(F-86.72457166054416
F36.075959379256275
tp229
sI229
(F-86.70670512153127
F36.07606543827897
tp230
sI230
(F-86.68883853541233
F36.076168849484624
tp231
sI231
(F-86.67097190337802
F36.07626961286312
tp232
sI232
(F-86.65310522661909
F36.07636772840457
tp233
sI233
(F-86.63523850632629
F36.076463196099375
tp234
sI234
(F-86.61737174369037
F36.07655601593812
tp235
sI235
(F-86.59950493990213
F36.076646187911734
tp236
sI236
(F-86.58163809615236
F36.0767337120114
tp237
sI237
(F-86.5637712136319
F36.0768185882285
tp238
sI238
(F-86.54590429353156
F36.076900816554705
tp239
sI239
(F-86.52620289228366
F36.076988417803044
tp240
sI240
(F-87.04635096535937
F36.08810105848824
tp241
sI241
(F-87.02848221632615
F36.088254803712694
tp242
sI242
(F-87.01061339872018
F36.08840590087298
tp243
sI243
(F-86.99274451373235
F36.08855434995431
tp244
sI244
(F-86.97487556255366
F36.08870015094209
tp245
sI245
(F-86.95700654637513
F36.088843303822074
tp246
sI246
(F-86.93913746638776
F36.088983808580146
tp247
sI247
(F-86.92126832378267
F36.08912166520257
tp248
sI248
(F-86.90339911975089
F36.08925687367587
tp249
sI249
(F-86.88552985548354
F36.08938943398668
tp250
sI250
(F-86.86766053217175
F36.089519346122096
tp251
sI251
(F-86.8497911510067
F36.089646610069316
tp252
sI252
(F-86.83192171317957
F36.0897712258159
tp253
sI253
(F-86.81405221988152
F36.0898931933496
tp254
sI254
(F-86.7961826723038
F36.090012512658475
tp255
sI255
(F-86.77831307163768
F36.09012918373079
tp256
sI256
(F-86.76044341907439
F36.090243206555144
tp257
sI257
(F-86.74257371580525
F36.09035458112032
tp258
sI258
(F-86.72470396302155
F36.090463307415426
tp259
sI259
(F-86.70683416191461
F36.090569385429774
tp260
sI260
(F-86.6889643136758
F36.09067281515294
tp261
sI261
(F-86.67109441949647
F36.090773596574834
tp262
sI262
(F-86.65322448056801
F36.090871729685546
tp263
sI263
(F-86.63535449808182
F36.09096721447545
tp264
sI264
(F-86.61748447322933
F36.09106005093516
tp265
sI265
(F-86.59961440720198
F36.091150239055644
tp266
sI266
(F-86.58174430119121
F36.091237778827974
tp267
sI267
(F-86.56387415638848
F36.091322670243606
tp268
sI268
(F-86.54600397398531
F36.09140491329421
tp269
sI269
(F-86.52629897546309
F36.09149253022905
tp270
sI270
(F-87.04654205013694
F36.10260451200909
tp271
sI271
(F-87.02867003839481
F36.10275828475941
tp272
sI272
(F-87.01079795804232
F36.10290940897149
tp273
sI273
(F-86.99292581027106
F36.1030578846305
tp274
sI274
(F-86.97505359627269
F36.10320371172187
tp275
sI275
(F-86.95718131723885
F36.10334689023131
tp276
sI276
(F-86.93930897436123
F36.10348742014476
tp277
sI277
(F-86.92143656883154
F36.10362530144849
tp278
sI278
(F-86.90356410184151
F36.103760534128895
tp279
sI279
(F-86.88569157458292
F36.10389311817276
tp280
sI280
(F-86.86781898824755
F36.104023053567076
tp281
sI281
(F-86.8499463440272
F36.10415034029912
tp282
sI282
(F-86.83207364311372
F36.104274978356386
tp283
sI283
(F-86.81420088669893
F36.104396967726636
tp284
sI284
(F-86.79632807597474
F36.10451630839793
tp285
sI285
(F-86.77845521213304
F36.10463300035855
tp286
sI286
(F-86.76058229636575
F36.104747043597094
tp287
sI287
(F-86.74270932986481
F36.104858438102305
tp288
sI288
(F-86.72483631382218
F36.10496718386329
tp289
sI289
(F-86.70696324942982
F36.10507328086942
tp290
sI290
(F-86.68909013787979
F36.105176729110255
tp291
sI291
(F-86.67121698036405
F36.10527752857563
tp292
sI292
(F-86.65334377807467
F36.10537567925568
tp293
sI293
(F-86.63547053220368
F36.10547118114083
tp294
sI294
(F-86.61759724394318
F36.105564034221594
tp295
sI295
(F-86.59972391448525
F36.10565423848898
tp296
sI296
(F-86.581850545022
F36.10574179393409
tp297
sI297
(F-86.56397713674554
F36.10582670054831
tp298
sI298
(F-86.54610369084801
F36.10590895832338
tp299
sI299
(F-86.52639509373766
F36.10599659094482
tp300
sI300
(F-87.04673320471646
F36.117107912882474
tp301
sI301
(F-87.02885792907382
F36.11726171315882
tp302
sI302
(F-87.01098258478322
F36.1174128644228
tp303
sI303
(F-86.9931071730369
F36.11756136665966
tp304
sI304
(F-86.97523169502718
F36.11770721985474
tp305
sI305
(F-86.95735615194636
F36.11785042399378
tp306
sI306
(F-86.93948054498675
F36.11799097906276
tp307
sI307
(F-86.92160487534073
F36.11812888504786
tp308
sI308
(F-86.90372914420072
F36.11826414193555
tp309
sI309
(F-86.8858533527591
F36.1183967497126
tp310
sI310
(F-86.86797750220832
F36.11852670836597
tp311
sI311
(F-86.85010159374085
F36.118654017882925
tp312
sI312
(F-86.83222562854915
F36.11877867825098
tp313
sI313
(F-86.81434960782576
F36.11890068945793
tp314
sI314
(F-86.79647353276319
F36.119020051491766
tp315
sI315
(F-86.77859740455398
F36.11913676434084
tp316
sI316
(F-86.76072122439074
F36.11925082799365
tp317
sI317
(F-86.74284499346605
F36.119362242439
tp318
sI318
(F-86.7249687129725
F36.11947100766604
tp319
sI319
(F-86.70709238410275
F36.11957712366401
tp320
sI320
(F-86.68921600804946
F36.1196805904226
tp321
sI321
(F-86.67133958600529
F36.11978140793157
tp322
sI322
(F-86.65346311916291
F36.119879576181056
tp323
sI323
(F-86.63558660871507
F36.119975095161486
tp324
sI324
(F-86.61771005585446
F36.120067964863445
tp325
sI325
(F-86.59983346177385
F36.12015818527782
tp326
sI326
(F-86.58195682766598
F36.12024575639578
tp327
sI327
(F-86.56408015472364
F36.12033067820873
tp328
sI328
(F-86.54620344413962
F36.12041295070834
tp329
sI329
(F-86.52649124712656
F36.12050059901646
tp330
sI330
(F-87.0469244291362
F36.13161126017421
tp331
sI331
(F-87.02904588840082
F36.131765087976746
tp332
sI332
(F-87.01116727897984
F36.13191626629282
tp333
sI333
(F-86.99328860206619
F36.132064795107624
tp334
sI334
(F-86.9754098588528
F36.1322106744066
tp335
sI335
(F-86.95753105053264
F36.13235390417541
tp336
sI336
(F-86.93965217829867
F36.13249448440002
tp337
sI337
(F-86.92177324334396
F36.13263241506664
tp338
sI338
(F-86.90389424686153
F36.13276769616176
tp339
sI339
(F-86.88601519004445
F36.1329003276721
tp340
sI340
(F-86.8681360740858
F36.13303030958463
tp341
sI341
(F-86.8502569001787
F36.133157641886655
tp342
sI342
(F-86.8323776695163
F36.133282324565634
tp343
sI343
(F-86.81449838329175
F36.13340435760938
tp344
sI344
(F-86.79661904269825
F36.1335237410059
tp345
sI345
(F-86.77873964892899
F36.13364047474349
tp346
sI346
(F-86.7608602031772
F36.13375455881069
tp347
sI347
(F-86.74298070663613
F36.13386599319632
tp348
sI348
(F-86.72510116049905
F36.13397477788947
tp349
sI349
(F-86.70722156595924
F36.13408091287944
tp350
sI350
(F-86.68934192421003
F36.13418439815583
tp351
sI351
(F-86.67146223644471
F36.134285233708496
tp352
sI352
(F-86.65358250385665
F36.13438341952757
tp353
sI353
(F-86.6357027276392
F36.13447895560337
tp354
sI354
(F-86.61782290898576
F36.13457184192658
tp355
sI355
(F-86.5999430490897
F36.13466207848804
tp356
sI356
(F-86.58206314914445
F36.13474966527895
tp357
sI357
(F-86.56418321034344
F36.13483460229068
tp358
sI358
(F-86.54630323388011
F36.13491688951493
tp359
sI359
(F-86.52658743564905
F36.13500455350978
tp360
sI360
(F-87.04711572343442
F36.14611455295017
tp361
sI361
(F-87.0292339164134
F36.14626840827904
tp362
sI362
(F-87.01135204066915
F36.14641961364734
tp363
sI363
(F-86.99347009739522
F36.14656816904024
tp364
sI364
(F-86.97558808778518
F36.146714074443224
tp365
sI365
(F-86.95770601303269
F36.14685732984195
tp366
sI366
(F-86.93982387433138
F36.14699793522231
tp367
sI367
(F-86.92194167287492
F36.14713589057064
tp368
sI368
(F-86.904059409857
F36.14727119587328
tp369
sI369
(F-86.88617708647135
F36.147403851117055
tp370
sI370
(F-86.86829470391173
F36.14753385628891
tp371
sI371
(F-86.85041226337187
F36.14766121137608
tp372
sI372
(F-86.83252976604561
F36.147785916366125
tp373
sI373
(F-86.81464721312673
F36.14790797124676
tp374
sI374
(F-86.79676460580907
F36.14802737600606
tp375
sI375
(F-86.77888194528653
F36.14814413063229
tp376
sI376
(F-86.76099923275295
F36.148258235114
tp377
sI377
(F-86.74311646940224
F36.14836968944002
tp378
sI378
(F-86.72523365642833
F36.14847849359938
tp379
sI379
(F-86.70735079502515
F36.14858464758143
tp380
sI380
(F-86.68946788638668
F36.14868815137577
tp381
sI381
(F-86.67158493170689
F36.14878900497225
tp382
sI382
(F-86.65370193217977
F36.148887208360925
tp383
sI383
(F-86.63581888899934
F36.14898276153226
tp384
sI384
(F-86.61793580335964
F36.14907566447676
tp385
sI385
(F-86.60005267645475
F36.14916591718542
tp386
sI386
(F-86.58216950947869
F36.14925351964936
tp387
sI387
(F-86.56428630362556
F36.14933847185995
tp388
sI388
(F-86.54640306008947
F36.149420773808906
tp389
sI389
(F-86.52668365932438
F36.14950845349062
tp390
sI390
(F-87.04730708764941
F36.16061779027598
tp391
sI391
(F-87.02942201314924
F36.16077167313131
tp392
sI392
(F-87.01153686988813
F36.16092290555197
tp393
sI393
(F-86.99365165906032
F36.16107148752314
tp394
sI394
(F-86.97576638186005
F36.161217419030244
tp395
sI395
(F-86.95788103948158
F36.16136070005897
tp396
sI396
(F-86.93999563311924
F36.16150133059529
tp397
sI397
(F-86.92211016396732
F36.1616393106254
tp398
sI398
(F-86.90422463322021
F36.16177464013572
tp399
sI399
(F-86.88633904207224
F36.16190731911304
tp400
sI400
(F-86.86845339171786
F36.162037347544334
tp401
sI401
(F-86.85056768335147
F36.16216472541681
tp402
sI402
(F-86.83268191816751
F36.162289452718014
tp403
sI403
(F-86.81479609736047
F36.16241152943569
tp404
sI404
(F-86.79691022212482
F36.16253095555786
tp405
sI405
(F-86.7790242936551
F36.16264773107286
tp406
sI406
(F-86.76113831314582
F36.1627618559692
tp407
sI407
(F-86.74325228179154
F36.16287333023569
tp408
sI408
(F-86.72536620078687
F36.16298215386138
tp409
sI409
(F-86.70748007132637
F36.16308832683564
tp410
sI410
(F-86.68959389460466
F36.163191849147985
tp411
sI411
(F-86.67170767181638
F36.163292720788355
tp412
sI412
(F-86.6538214041562
F36.16339094174678
tp413
sI413
(F-86.63593509281877
F36.163486512013655
tp414
sI414
(F-86.61804873899878
F36.16357943157962
tp415
sI415
(F-86.60016234389094
F36.16366970043555
tp416
sI416
(F-86.58227590869
F36.163757318572586
tp417
sI417
(F-86.56438943459065
F36.16384228598212
tp418
sI418
(F-86.54650292278768
F36.16392460265585
tp419
sI419
(F-86.52677991817184
F36.16401229802449
tp420
sI420
(F-87.04749852181955
F36.17512097121707
tp421
sI421
(F-87.02961017864601
F36.175274881599
tp422
sI422
(F-87.01172176667384
F36.17542614107221
tp423
sI423
(F-86.9938332870979
F36.17557474962179
tp424
sI424
(F-86.9759447411131
F36.175720707233175
tp425
sI425
(F-86.95805612991437
F36.17586401389208
tp426
sI426
(F-86.94016745469665
F36.17600466958443
tp427
sI427
(F-86.92227871665493
F36.17614267429648
tp428
sI428
(F-86.90438991698423
F36.17627802801459
tp429
sI429
(F-86.88650105687958
F36.1764107307256
tp430
sI430
(F-86.86861213753602
F36.17654078241644
tp431
sI431
(F-86.85072316014863
F36.17666818307434
tp432
sI432
(F-86.83283412591251
F36.17679293268681
tp433
sI433
(F-86.81494503602282
F36.17691503124164
tp434
sI434
(F-86.79705589167466
F36.177034478726824
tp435
sI435
(F-86.77916669406322
F36.1771512751307
tp436
sI436
(F-86.76127744438368
F36.17726542044176
tp437
sI437
(F-86.74338814383128
F36.177376914648825
tp438
sI438
(F-86.72549879360122
F36.17748575774095
tp439
sI439
(F-86.70760939488878
F36.177591949707484
tp440
sI440
(F-86.6897199488892
F36.17769549053799
tp441
sI441
(F-86.67183045679779
F36.177796380222325
tp442
sI442
(F-86.65394091980986
F36.177894618750564
tp443
sI443
(F-86.63605133912074
F36.17799020611315
tp444
sI444
(F-86.61816171592575
F36.17808314230059
tp445
sI445
(F-86.60027205142029
F36.178173427303896
tp446
sI446
(F-86.58238234679969
F36.178261061114114
tp447
sI447
(F-86.56449260325938
F36.17834604372269
tp448
sI448
(F-86.54660282199475
F36.17842837512128
tp449
sI449
(F-86.52687621221071
F36.17851608617693
tp450
sI450
(F-87.04769002598317
F36.18962409483884
tp451
sI451
(F-87.02979841294143
F36.189778032747554
tp452
sI452
(F-87.01190673106332
F36.1899293192734
tp453
sI453
(F-86.99401498154434
F36.190077954401495
tp454
sI454
(F-86.97612316558009
F36.190223938117306
tp455
sI455
(F-86.95823128436614
F36.19036727040653
tp456
sI456
(F-86.94033933909807
F36.190507951255086
tp457
sI457
(F-86.92244733097155
F36.19064598064916
tp458
sI458
(F-86.90455526118224
F36.19078135857522
tp459
sI459
(F-86.88666313092581
F36.190914085020005
tp460
sI460
(F-86.868770941398
F36.19104415997051
tp461
sI461
(F-86.85087869379451
F36.19117158341394
tp462
sI462
(F-86.83298638931112
F36.191296355337855
tp463
sI463
(F-86.81509402914361
F36.19141847572995
tp464
sI464
(F-86.79720161448776
F36.19153794457826
tp465
sI465
(F-86.77930914653942
F36.19165476187108
tp466
sI466
(F-86.76141662649444
F36.19176892759699
tp467
sI467
(F-86.74352405554866
F36.19188044174472
tp468
sI468
(F-86.72563143489798
F36.19198930430339
tp469
sI469
(F-86.70773876573833
F36.19209551526232
tp470
sI470
(F-86.68984604926558
F36.192199074611054
tp471
sI471
(F-86.67195328667573
F36.19229998233947
tp472
sI472
(F-86.65406047916474
F36.19239823843763
tp473
sI473
(F-86.63616762792857
F36.19249384289596
tp474
sI474
(F-86.61827473416322
F36.19258679570505
tp475
sI475
(F-86.60038179906472
F36.192677096855746
tp476
sI476
(F-86.58248882382911
F36.19276474633926
tp477
sI477
(F-86.56459580965242
F36.19284974414695
tp478
sI478
(F-86.54670275773071
F36.192932090270475
tp479
sI479
(F-86.52697254146027
F36.19301981701322
tp480
sI480
(F-87.0478816001787
F36.2041271602065
tp481
sI481
(F-87.02998671607324
F36.2042811256421
tp482
sI482
(F-87.01209176309365
F36.20443243922071
tp483
sI483
(F-86.99419674243609
F36.20458110092752
tp484
sI484
(F-86.9763016552968
F36.20472711074788
tp485
sI485
(F-86.95840650287198
F36.20487046866752
tp486
sI486
(F-86.94051128635796
F36.20501117467239
tp487
sI487
(F-86.92261600695096
F36.20514922874866
tp488
sI488
(F-86.90472066584735
F36.205284630882794
tp489
sI489
(F-86.88682526424347
F36.20541738106151
tp490
sI490
(F-86.86892980333565
F36.20554747927181
tp491
sI491
(F-86.85103428432032
F36.2056749255009
tp492
sI492
(F-86.83313870839386
F36.2057997197363
tp493
sI493
(F-86.81524307675272
F36.205921861965756
tp494
sI494
(F-86.79734739059339
F36.206041352177316
tp495
sI495
(F-86.7794516511123
F36.20615819035925
tp496
sI496
(F-86.76155585950598
F36.20627237650009
tp497
sI497
(F-86.74366001697094
F36.206383910588606
tp498
sI498
(F-86.72576412470373
F36.206492792613915
tp499
sI499
(F-86.70786818390093
F36.20659902256531
tp500
sI500
(F-86.68997219575908
F36.2067026004324
tp501
sI501
(F-86.67207616147483
F36.206803526204965
tp502
sI502
(F-86.65418008224479
F36.206901799873165
tp503
sI503
(F-86.63628395926557
F36.206997421427324
tp504
sI504
(F-86.61838779373385
F36.20709039085811
tp505
sI505
(F-86.6004915868463
F36.207180708156336
tp506
sI506
(F-86.5825953397996
F36.20726837331318
tp507
sI507
(F-86.56469905379046
F36.20735338632006
tp508
sI508
(F-86.5468027300156
F36.2074357471686
tp509
sI509
(F-86.52706890593988
F36.20752348959851
tp510
sI510
(F-87.04807324444451
F36.21863016638509
tp511
sI511
(F-87.03017508807919
F36.21878415934772
tp512
sI512
(F-87.01227686280193
F36.218935499979295
tp513
sI513
(F-86.99437856980958
F36.2190841882649
tp514
sI514
(F-86.976480210299
F36.21923022418998
tp515
sI515
(F-86.95858178546709
F36.219373607740195
tp516
sI516
(F-86.94068329651077
F36.219514338901476
tp517
sI517
(F-86.92278474462701
F36.219652417660065
tp518
sI518
(F-86.90488613101277
F36.21978784400236
tp519
sI519
(F-86.88698745686503
F36.21992061791515
tp520
sI520
(F-86.86908872338084
F36.220050739385336
tp521
sI521
(F-86.85118993175723
F36.22017820840021
tp522
sI522
(F-86.83329108319128
F36.22030302494724
tp523
sI523
(F-86.81539217888007
F36.22042518901421
tp524
sI524
(F-86.79749322002074
F36.22054470058909
tp525
sI525
(F-86.7795942078104
F36.22066155966021
tp526
sI526
(F-86.76169514344623
F36.2207757662161
tp527
sI527
(F-86.74379602812539
F36.22088732024554
tp528
sI528
(F-86.7258968630451
F36.220996221737565
tp529
sI529
(F-86.70799764940256
F36.22110247068154
tp530
sI530
(F-86.69009838839501
F36.22120606706704
tp531
sI531
(F-86.67219908121974
F36.221307010883876
tp532
sI532
(F-86.654299729074
F36.22140530212217
tp533
sI533
(F-86.63640033315508
F36.221500940772266
tp534
sI534
(F-86.6185008946603
F36.221593926824795
tp535
sI535
(F-86.60060141478701
F36.22168426027066
tp536
sI536
(F-86.58270189473252
F36.22177194110097
tp537
sI537
(F-86.56480233569422
F36.22185696930709
tp538
sI538
(F-86.54690273886948
F36.22193934488074
tp539
sI539
(F-86.52716530566883
F36.222027102997885
tp540
sI540
(F-87.04826495881909
F36.23313311243953
tp541
sI541
(F-87.03036352899709
F36.233287132929384
tp542
sI542
(F-87.01246203022532
F36.23343850061399
tp543
sI543
(F-86.99456046370129
F36.23358721547856
tp544
sI544
(F-86.97665883062254
F36.23373327750846
tp545
sI545
(F-86.9587571321866
F36.23387668668936
tp546
sI546
(F-86.94085536959108
F36.23401744300724
tp547
sI547
(F-86.92295354403355
F36.23415554644824
tp548
sI548
(F-86.90505165671165
F36.23429099699885
tp549
sI549
(F-86.88714970882306
F36.23442379464578
tp550
sI550
(F-86.86924770156543
F36.234553939376006
tp551
sI551
(F-86.85134563613649
F36.23468143117679
tp552
sI552
(F-86.83344351373395
F36.234806270035556
tp553
sI553
(F-86.81554133555557
F36.234928455940114
tp554
sI554
(F-86.7976391027991
F36.23504798887847
tp555
sI555
(F-86.77973681666236
F36.23516486883887
tp556
sI556
(F-86.76183447834315
F36.23527909580991
tp557
sI557
(F-86.7439320890393
F36.23539066978034
tp558
sI558
(F-86.7260296499487
F36.23549959073922
tp559
sI559
(F-86.70812716226921
F36.23560585867587
tp560
sI560
(F-86.6902246271987
F36.23570947357989
tp561
sI561
(F-86.6723220459351
F36.23581043544109
tp562
sI562
(F-86.65441941967639
F36.23590874424957
tp563
sI563
(F-86.63651674962047
F36.23600439999569
tp564
sI564
(F-86.61861403696531
F36.2360974026701
tp565
sI565
(F-86.6007112829089
F36.236187752263604
tp566
sI566
(F-86.58280848864928
F36.23627544876743
tp567
sI567
(F-86.56490565538442
F36.236360492172906
tp568
sI568
(F-86.54700278431241
F36.236442882471735
tp569
sI569
(F-86.52726174066649
F36.23653065627624
tp570
sI570
(F-87.04845674334092
F36.24763599743466
tp571
sI571
(F-87.03055203886474
F36.24779004545181
tp572
sI572
(F-87.01264726540097
F36.24794144018962
tp573
sI573
(F-86.99474242414774
F36.24809018163325
tp574
sI574
(F-86.97683751630325
F36.24823626976812
tp575
sI575
(F-86.95893254306571
F36.24837970457988
tp576
sI576
(F-86.94102750563336
F36.248520486054424
tp577
sI577
(F-86.92312240520444
F36.24865861417803
tp578
sI578
(F-86.90521724297726
F36.248794088937046
tp579
sI579
(F-86.88731202015012
F36.24892691031828
tp580
sI580
(F-86.86940673792137
F36.24905707830865
tp581
sI581
(F-86.85150139748934
F36.24918459289542
tp582
sI582
(F-86.83359600005247
F36.24930945406606
tp583
sI583
(F-86.81569054680912
F36.24943166180831
tp584
sI584
(F-86.79778503895774
F36.24955121611021
tp585
sI585
(F-86.77987947769677
F36.249668116960024
tp586
sI586
(F-86.7619738642247
F36.249782364346316
tp587
sI587
(F-86.74406819974
F36.24989395825783
tp588
sI588
(F-86.72616248544121
F36.25000289868366
tp589
sI589
(F-86.70825672252684
F36.25010918561309
tp590
sI590
(F-86.69035091219546
F36.250212819035724
tp591
sI591
(F-86.67244505564564
F36.25031379894135
tp592
sI592
(F-86.65453915407596
F36.2504121253201
tp593
sI593
(F-86.63663320868505
F36.250507798162374
tp594
sI594
(F-86.61872722067154
F36.2506008174587
tp595
sI595
(F-86.60082119123405
F36.25069118319998
tp596
sI596
(F-86.58291512157125
F36.250778895377394
tp597
sI597
(F-86.56500901288183
F36.25086395398231
tp598
sI598
(F-86.54710286636445
F36.25094635900637
tp599
sI599
(F-86.5273582109522
F36.251034148498285
tp600
sI600
(F-87.04864859804846
F36.26213882043503
tp601
sI601
(F-87.03074061772001
F36.26229289597967
tp602
sI602
(F-87.01283256836608
F36.26244431777082
tp603
sI603
(F-86.99492445118547
F36.262593085793675
tp604
sI604
(F-86.97701626737704
F36.26273920003361
tp605
sI605
(F-86.95910801813966
F36.262882660476315
tp606
sI606
(F-86.9411997046722
F36.263023467107686
tp607
sI607
(F-86.92329132817362
F36.26316161991396
tp608
sI608
(F-86.90538288984281
F36.26329711888156
tp609
sI609
(F-86.8874743908788
F36.26342996399718
tp610
sI610
(F-86.86956583248056
F36.2635601552478
tp611
sI611
(F-86.85165721584708
F36.2636876926207
tp612
sI612
(F-86.83374854217746
F36.263812576103305
tp613
sI613
(F-86.81583981267072
F36.26393480568339
tp614
sI614
(F-86.79793102852597
F36.26405438134895
tp615
sI615
(F-86.7800221909423
F36.2641713030883
tp616
sI616
(F-86.76211330111887
F36.26428557088992
tp617
sI617
(F-86.7442043602548
F36.26439718474263
tp618
sI618
(F-86.72629536954928
F36.26450614463547
tp619
sI619
(F-86.70838633020149
F36.26461245055776
tp620
sI620
(F-86.69047724341067
F36.264716102499115
tp621
sI621
(F-86.67256811037602
F36.26481710044928
tp622
sI622
(F-86.6546589322968
F36.26491544439841
tp623
sI623
(F-86.63674971037229
F36.26501113433684
tp624
sI624
(F-86.61884044580175
F36.265104170255206
tp625
sI625
(F-86.6009311397845
F36.26519455214436
tp626
sI626
(F-86.58302179351985
F36.26528227999544
tp627
sI627
(F-86.56511240820716
F36.26536735379984
tp628
sI628
(F-86.54720298504576
F36.26544977354923
tp629
sI629
(F-86.52745471654535
F36.2655375787286
tp630
sI630
(F-87.0488405229803
F36.27664158050522
tp631
sI631
(F-87.03092926560076
F36.27679568357743
tp632
sI632
(F-87.01301793915785
F36.27694713242207
tp633
sI633
(F-86.99510654485103
F36.27709592702426
tp634
sI634
(F-86.97719508387978
F36.277242067369414
tp635
sI635
(F-86.95928355744365
F36.27738555344319
tp636
sI636
(F-86.9413719667422
F36.277526385231525
tp637
sI637
(F-86.92346031297498
F36.277664562720595
tp638
sI638
(F-86.9055485973416
F36.27780008589687
tp639
sI639
(F-86.88763682104172
F36.27793295474702
tp640
sI640
(F-86.86972498527496
F36.27806316925802
tp641
sI641
(F-86.851813091241
F36.27819072941713
tp642
sI642
(F-86.83390114013956
F36.278315635211825
tp643
sI643
(F-86.81598913317035
F36.278437886629824
tp644
sI644
(F-86.79807707153311
F36.27855748365914
tp645
sI645
(F-86.78016495642763
F36.27867442628811
tp646
sI646
(F-86.76225278905366
F36.27878871450518
tp647
sI647
(F-86.74434057061104
F36.27890034829921
tp648
sI648
(F-86.72642830229961
F36.27900932765917
tp649
sI649
(F-86.70851598531921
F36.27911565257443
tp650
sI650
(F-86.69060362086968
F36.27921932303456
tp651
sI651
(F-86.67269121015096
F36.27932033902936
tp652
sI652
(F-86.65477875436294
F36.279418700548945
tp653
sI653
(F-86.63686625470551
F36.27951440758367
tp654
sI654
(F-86.61895371237867
F36.27960746012415
tp655
sI655
(F-86.60104112858235
F36.2796978581612
tp656
sI656
(F-86.58312850451651
F36.27978560168605
tp657
sI657
(F-86.56521584138119
F36.27987069069001
tp658
sI658
(F-86.54730314037639
F36.27995312516478
tp659
sI659
(F-86.52755125746533
F36.28004094603174
tp660
sI660
(F-87.04903251817495
F36.2911442767095
tp661
sI661
(F-87.0311179825449
F36.29129840730947
tp662
sI662
(F-87.01320337781354
F36.29144988320772
tp663
sI663
(F-86.995288705181
F36.29159870438938
tp664
sI664
(F-86.97737396584742
F36.29174487083987
tp665
sI665
(F-86.959459161013
F36.291888382544855
tp666
sI666
(F-86.94154429187795
F36.29202923949025
tp667
sI667
(F-86.9236293596425
F36.29216744166227
tp668
sI668
(F-86.90571436550692
F36.2923029890473
tp669
sI669
(F-86.88779931067151
F36.292435881632095
tp670
sI670
(F-86.86988419633656
F36.29256611940361
tp671
sI671
(F-86.85196902370241
F36.29269370234904
tp672
sI672
(F-86.83405379396943
F36.29281863045591
tp673
sI673
(F-86.816138508338
F36.29294090371196
tp674
sI674
(F-86.79822316800852
F36.29306052210518
tp675
sI675
(F-86.7803077741814
F36.293177485623836
tp676
sI676
(F-86.76239232805712
F36.29329179425649
tp677
sI677
(F-86.74447683083613
F36.293403447991885
tp678
sI678
(F-86.72656128371892
F36.293512446819086
tp679
sI679
(F-86.70864568790601
F36.29361879072739
tp680
sI680
(F-86.69073004459793
F36.29372247970641
tp681
sI681
(F-86.67281435499521
F36.29382351374591
tp682
sI682
(F-86.65489862029844
F36.29392189283606
tp683
sI683
(F-86.63698284170819
F36.29401761696713
tp684
sI684
(F-86.61906702042506
F36.29411068612977
tp685
sI685
(F-86.60115115764968
F36.29420110031487
tp686
sI686
(F-86.58323525458269
F36.29428885951352
tp687
sI687
(F-86.56531931242473
F36.29437396371712
tp688
sI688
(F-86.54740333237649
F36.29445641291736
tp689
sI689
(F-86.52764783373152
F36.29454424947197
tp690
sI690
(F-87.04922458367103
F36.30564690811215
tp691
sI691
(F-87.03130676859037
F36.30580106623999
tp692
sI692
(F-87.01338888437043
F36.305952569191966
tp693
sI693
(F-86.99547093221199
F36.306101416953254
tp694
sI694
(F-86.97755291331589
F36.30624760950919
tp695
sI695
(F-86.95963482888297
F36.30639114684552
tp696
sI696
(F-86.9417166801141
F36.30653202894811
tp697
sI697
(F-86.92379846821017
F36.306670255803176
tp698
sI698
(F-86.9058801943721
F36.30680582739712
tp699
sI699
(F-86.88796185980084
F36.30693874371666
tp700
sI700
(F-86.87004346569736
F36.307069004748755
tp701
sI701
(F-86.85212501326266
F36.307196610480645
tp702
sI702
(F-86.83420650369776
F36.30732156089982
tp703
sI703
(F-86.8162879382037
F36.307443855994
tp704
sI704
(F-86.79836931798155
F36.30756349575119
tp705
sI705
(F-86.78045064423236
F36.30768048015966
tp706
sI706
(F-86.7625319181573
F36.307794809207955
tp707
sI707
(F-86.74461314095743
F36.307906482884846
tp708
sI708
(F-86.72669431383395
F36.30801550117938
tp709
sI709
(F-86.70877543798802
F36.308121864080825
tp710
sI710
(F-86.6908565146208
F36.308225571578824
tp711
sI711
(F-86.67293754493353
F36.30832662366314
tp712
sI712
(F-86.65501853012744
F36.3084250203239
tp713
sI713
(F-86.63709947140373
F36.30852076155143
tp714
sI714
(F-86.61918036996371
F36.30861384733634
tp715
sI715
(F-86.60126122700865
F36.308704277669506
tp716
sI716
(F-86.58334204373983
F36.308792052542074
tp717
sI717
(F-86.56542282135857
F36.308877171945404
tp718
sI718
(F-86.54750356106621
F36.30895963587116
tp719
sI719
(F-86.52774444536334
F36.30904748811349
tp720
sI720
(F-87.04941671950716
F36.32014947377726
tp721
sI721
(F-87.0314956237751
F36.3203036594331
tp722
sI722
(F-87.01357445886579
F36.320455189438945
tp723
sI723
(F-86.99565322598067
F36.32060406377996
tp724
sI724
(F-86.9777319263212
F36.3207502824415
tp725
sI725
(F-86.95981056108891
F36.32089384540927
tp726
sI726
(F-86.94188913148531
F36.32103475266916
tp727
sI727
(F-86.92396763871197
F36.32117300420738
tp728
sI728
(F-86.90604608397045
F36.32130860001034
tp729
sI729
(F-86.8881244684624
F36.321441540064775
tp730
sI730
(F-86.8702027933894
F36.32157182435758
tp731
sI731
(F-86.85228105995313
F36.32169945287605
tp732
sI732
(F-86.83435926935526
F36.32182442560761
tp733
sI733
(F-86.8164374227975
F36.32194674254002
tp734
sI734
(F-86.79851552148159
F36.3220664036613
tp735
sI735
(F-86.78059356660924
F36.322183408959674
tp736
sI736
(F-86.76267155938224
F36.32229775842373
tp737
sI737
(F-86.74474950100237
F36.322409452042194
tp738
sI738
(F-86.72682739267142
F36.32251848980414
tp739
sI739
(F-86.70890523559127
F36.322624871698835
tp740
sI740
(F-86.69098303096374
F36.322728597715894
tp741
sI741
(F-86.67306077999069
F36.322829667845085
tp742
sI742
(F-86.65513848387403
F36.32292808207654
tp743
sI743
(F-86.6372161438156
F36.32302384040061
tp744
sI744
(F-86.61929376101742
F36.32311694280788
tp745
sI745
(F-86.60137133668137
F36.32320738928921
tp746
sI746
(F-86.58344887200941
F36.323295179835746
tp747
sI747
(F-86.56552636820352
F36.32338031443889
tp748
sI748
(F-86.54760382646568
F36.32346279309026
tp749
sI749
(F-86.52784109238023
F36.32355066102036
tp750
sI750
(F-87.04960892572197
F36.33465197276874
tp751
sI751
(F-87.03168454813712
F36.33480618595267
tp752
sI752
(F-87.01376010133698
F36.3349577430125
tp753
sI753
(F-86.99583558652368
F36.335106643933365
tp754
sI754
(F-86.97791100489934
F36.33525288870065
tp755
sI755
(F-86.95998635766615
F36.33539647729999
tp756
sI756
(F-86.94206164602627
F36.335537409717325
tp757
sI757
(F-86.92413687118193
F36.335675685938824
tp758
sI758
(F-86.90621203433537
F36.335811305950934
tp759
sI759
(F-86.88828713668886
F36.33594426974031
tp760
sI760
(F-86.8703621794447
F36.33607457729396
tp761
sI761
(F-86.85243716380518
F36.336202228599085
tp762
sI762
(F-86.83451209097265
F36.336327223643146
tp763
sI763
(F-86.81658696214949
F36.336449562413904
tp764
sI764
(F-86.79866177853805
F36.33656924489938
tp765
sI765
(F-86.78073654134077
F36.33668627108778
tp766
sI766
(F-86.76281125176006
F36.33680064096768
tp767
sI767
(F-86.74488591099836
F36.33691235452779
tp768
sI768
(F-86.72696052025815
F36.33702141175725
tp769
sI769
(F-86.70903508074193
F36.33712781264527
tp770
sI770
(F-86.6911095936522
F36.33723155718146
tp771
sI771
(F-86.67318406019147
F36.337332645355644
tp772
sI772
(F-86.65525848156231
F36.33743107715792
tp773
sI773
(F-86.6373328589673
F36.33752685257858
tp774
sI774
(F-86.61940719360899
F36.33761997160826
tp775
sI775
(F-86.60148148668999
F36.337710434237835
tp776
sI776
(F-86.58355573941292
F36.33779824045843
tp777
sI777
(F-86.5656299529804
F36.33788339026143
tp778
sI778
(F-86.54770412859511
F36.33796588363845
tp779
sI779
(F-86.52793777480161
F36.338053767256454
tp780
sI780
(F-87.04980120235416
F36.349154404150354
tp781
sI781
(F-87.0318735417144
F36.34930864486255
tp782
sI782
(F-87.01394581182134
F36.34946022897652
tp783
sI783
(F-86.99601801387773
F36.34960915647736
tp784
sI784
(F-86.97809014908637
F36.34975542735047
tp785
sI785
(F-86.96016221865007
F36.3498990415815
tp786
sI786
(F-86.94223422377169
F36.35003999915637
tp787
sI787
(F-86.92430616565412
F36.35017830006129
tp788
sI788
(F-86.90637804550026
F36.35031394428264
tp789
sI789
(F-86.888449864513
F36.350446931807106
tp790
sI790
(F-86.87052162389536
F36.3505772626217
tp791
sI791
(F-86.85259332485025
F36.35070493671359
tp792
sI792
(F-86.83466496858071
F36.35082995407028
tp793
sI793
(F-86.81673655628973
F36.35095231467948
tp794
sI794
(F-86.79880808918038
F36.3510720185292
tp795
sI795
(F-86.78087956845573
F36.351189065607734
tp796
sI796
(F-86.76295099531886
F36.35130345590357
tp797
sI797
(F-86.74502237097288
F36.351415189405486
tp798
sI798
(F-86.7270936966209
F36.35152426610251
tp799
sI799
(F-86.7091649734661
F36.351630685983956
tp800
sI800
(F-86.69123620271164
F36.35173444903939
tp801
sI801
(F-86.6733073855607
F36.35183555525863
tp802
sI802
(F-86.65537852321651
F36.35193400463176
tp803
sI803
(F-86.63744961688228
F36.35202979714911
tp804
sI804
(F-86.61952066776124
F36.35212293280128
tp805
sI805
(F-86.60159167705669
F36.35221341157921
tp806
sI806
(F-86.58366264597187
F36.352301233473895
tp807
sI807
(F-86.5657335757101
F36.352386398476845
tp808
sI808
(F-86.54780446747466
F36.352468906579624
tp809
sI809
(F-86.52803449264698
F36.35255680588556
tp810
sI810
(F-87.0499935494424
F36.3636567669858
tp811
sI811
(F-87.03206260454503
F36.36381103522639
tp812
sI812
(F-87.01413159035626
F36.36396264639459
tp813
sI813
(F-86.99620050807954
F36.36411160047553
tp814
sI814
(F-86.97826935891831
F36.364257897454586
tp815
sI815
(F-86.96033814407608
F36.36440153731744
tp816
sI816
(F-86.94240686475632
F36.364542520049966
tp817
sI817
(F-86.92447552216261
F36.3646808456384
tp818
sI818
(F-86.90654411749851
F36.36481651406909
tp819
sI819
(F-86.88861265196758
F36.36494952532879
tp820
sI820
(F-86.87068112677345
F36.36507987940442
tp821
sI821
(F-86.85274954311976
F36.36520757628317
tp822
sI822
(F-86.83481790221016
F36.36533261595256
tp823
sI823
(F-86.81688620524835
F36.36545499840034
tp824
sI824
(F-86.79895445343803
F36.365574723614465
tp825
sI825
(F-86.78102264798292
F36.36569179158319
tp826
sI826
(F-86.76309079008676
F36.365806202295055
tp827
sI827
(F-86.74515888095335
F36.36591795573883
tp828
sI828
(F-86.72722692178647
F36.36602705190355
tp829
sI829
(F-86.70929491378993
F36.36613349077849
tp830
sI830
(F-86.69136285816755
F36.36623727235326
tp831
sI831
(F-86.6734307561232
F36.36633839661763
tp832
sI832
(F-86.65549860886074
F36.366436863561695
tp833
sI833
(F-86.63756641758404
F36.36653267317584
tp834
sI834
(F-86.61963418349704
F36.366625825450605
tp835
sI835
(F-86.60170190780364
F36.36671632037689
tp836
sI836
(F-86.58376959170779
F36.36680415794579
tp837
sI837
(F-86.56583723641343
F36.36688933814873
tp838
sI838
(F-86.54790484312454
F36.366971860977294
tp839
sI839
(F-86.52813124593577
F36.36705977597128
tp840
sI840
(F-87.05018596702546
F36.37815906033857
tp841
sI841
(F-87.03225173666704
F36.37831335610768
tp842
sI842
(F-87.01431743697914
F36.37846499433024
tp843
sI843
(F-86.99638306916584
F36.37861397499141
tp844
sI844
(F-86.97844863443127
F36.37876029807656
tp845
sI845
(F-86.96051413397959
F36.37890396357133
tp846
sI846
(F-86.94257956901492
F36.37904497146166
tp847
sI847
(F-86.92464494074152
F36.3791833217337
tp848
sI848
(F-86.90671025036357
F36.37931901437386
tp849
sI849
(F-86.88877549908536
F36.379452049368844
tp850
sI850
(F-86.87084068811113
F36.379582426705625
tp851
sI851
(F-86.85290581864518
F36.37971014637139
tp852
sI852
(F-86.83497089189186
F36.37983520835359
tp853
sI853
(F-86.81703590905549
F36.37995761264002
tp854
sI854
(F-86.79910087134046
F36.3800773592186
tp855
sI855
(F-86.78116577995114
F36.38019444807764
tp856
sI856
(F-86.76323063609195
F36.38030887920562
tp857
sI857
(F-86.74529544096733
F36.38042065259135
tp858
sI858
(F-86.72736019578171
F36.38052976822383
tp859
sI859
(F-86.7094249017396
F36.38063622609237
tp860
sI860
(F-86.69148956004545
F36.38074002618653
tp861
sI861
(F-86.6735541719038
F36.38084116849615
tp862
sI862
(F-86.65561873851918
F36.38093965301127
tp863
sI863
(F-86.63768326109613
F36.38103547972224
tp864
sI864
(F-86.61974774083922
F36.38112864861965
tp865
sI865
(F-86.60181217895305
F36.381219159694396
tp866
sI866
(F-86.5838765766422
F36.381307012937604
tp867
sI867
(F-86.5659409351113
F36.38139220834058
tp868
sI868
(F-86.54800525556497
F36.38147474589505
tp869
sI869
(F-86.5282280346875
F36.38156267657712
tp870
sI870
(F-87.05040088283683
F36.3943506550654
tp871
sI871
(F-87.03246298286855
F36.39450498156997
tp872
sI872
(F-87.01452501352821
F36.39465664999863
tp873
sI873
(F-86.99658697602065
F36.39480566033652
tp874
sI874
(F-86.97864887155072
F36.39495201256901
tp875
sI875
(F-86.96071070132331
F36.39509570668172
tp876
sI876
(F-86.94277246654332
F36.39523674266063
tp877
sI877
(F-86.9248341684157
F36.39537512049183
tp878
sI878
(F-86.90689580814544
F36.39551084016176
tp879
sI879
(F-86.88895738693748
F36.395643901657145
tp880
sI880
(F-86.87101890599686
F36.395774304964895
tp881
sI881
(F-86.85308036652862
F36.39590205007224
tp882
sI882
(F-86.83514176973782
F36.39602713696662
tp883
sI883
(F-86.81720311682953
F36.39614956563582
tp884
sI884
(F-86.79926440900888
F36.39626933606776
tp885
sI885
(F-86.78132564748098
F36.39638644825075
tp886
sI886
(F-86.763386833451
F36.39650090217326
tp887
sI887
(F-86.7454479681241
F36.39661269782412
tp888
sI888
(F-86.72750905270547
F36.396721835192295
tp889
sI889
(F-86.70957008840033
F36.39682831426712
tp890
sI890
(F-86.69163107641391
F36.39693213503813
tp891
sI891
(F-86.67369201795145
F36.39703329749512
tp892
sI892
(F-86.65575291421825
F36.397131801628255
tp893
sI893
(F-86.63781376641958
F36.39722764742778
tp894
sI894
(F-86.61987457576076
F36.39732083488436
tp895
sI895
(F-86.60193534344708
F36.39741136398881
tp896
sI896
(F-86.58399607068392
F36.397499234732244
tp897
sI897
(F-86.56605675867661
F36.39758444710607
tp898
sI898
(F-86.54811740863055
F36.39766700110192
tp899
sI899
(F-86.52833614036824
F36.397754949299646
tp900
s.